---
triple:          'arm64-apple-darwin'
binary-path:     hunt_debug
relocations:
  - { offsetInCU: 0x3B, offset: 0x3B, size: 0x8, addend: 0x0, symName: _.str, symObjAddr: 0x61340, symBinAddr: 0x10005F2A0, symSize: 0x0 }
  - { offsetInCU: 0x6B, offset: 0x6B, size: 0x8, addend: 0x0, symName: _.str.1, symObjAddr: 0x61380, symBinAddr: 0x10005F2E0, symSize: 0x0 }
  - { offsetInCU: 0x88, offset: 0x88, size: 0x8, addend: 0x0, symName: _.str.2, symObjAddr: 0x613A0, symBinAddr: 0x10005F300, symSize: 0x0 }
  - { offsetInCU: 0x99, offset: 0x99, size: 0x8, addend: 0x0, symName: _.str.3, symObjAddr: 0x613C0, symBinAddr: 0x10005F320, symSize: 0x0 }
  - { offsetInCU: 0xB6, offset: 0xB6, size: 0x8, addend: 0x0, symName: _.str.4, symObjAddr: 0x61400, symBinAddr: 0x10005F360, symSize: 0x0 }
  - { offsetInCU: 0xD3, offset: 0xD3, size: 0x8, addend: 0x0, symName: _.str.5, symObjAddr: 0x61460, symBinAddr: 0x10005F3C0, symSize: 0x0 }
  - { offsetInCU: 0xF0, offset: 0xF0, size: 0x8, addend: 0x0, symName: _.str.6, symObjAddr: 0x61480, symBinAddr: 0x10005F3E0, symSize: 0x0 }
  - { offsetInCU: 0x10D, offset: 0x10D, size: 0x8, addend: 0x0, symName: _.str.7, symObjAddr: 0x614C0, symBinAddr: 0x10005F420, symSize: 0x0 }
  - { offsetInCU: 0x12A, offset: 0x12A, size: 0x8, addend: 0x0, symName: _.str.8, symObjAddr: 0x61500, symBinAddr: 0x10005F460, symSize: 0x0 }
  - { offsetInCU: 0x147, offset: 0x147, size: 0x8, addend: 0x0, symName: _.str.9, symObjAddr: 0x61540, symBinAddr: 0x10005F4A0, symSize: 0x0 }
  - { offsetInCU: 0x164, offset: 0x164, size: 0x8, addend: 0x0, symName: _.str.10, symObjAddr: 0x615A0, symBinAddr: 0x10005F500, symSize: 0x0 }
  - { offsetInCU: 0x181, offset: 0x181, size: 0x8, addend: 0x0, symName: _.str.11, symObjAddr: 0x615C0, symBinAddr: 0x10005F520, symSize: 0x0 }
  - { offsetInCU: 0x19E, offset: 0x19E, size: 0x8, addend: 0x0, symName: _.str.12, symObjAddr: 0x61600, symBinAddr: 0x10005F560, symSize: 0x0 }
  - { offsetInCU: 0x1BB, offset: 0x1BB, size: 0x8, addend: 0x0, symName: _.str.13, symObjAddr: 0x61640, symBinAddr: 0x10005F5A0, symSize: 0x0 }
  - { offsetInCU: 0x1D8, offset: 0x1D8, size: 0x8, addend: 0x0, symName: _.str.14, symObjAddr: 0x61680, symBinAddr: 0x10005F5E0, symSize: 0x0 }
  - { offsetInCU: 0x1F5, offset: 0x1F5, size: 0x8, addend: 0x0, symName: _.str.15, symObjAddr: 0x616A0, symBinAddr: 0x10005F600, symSize: 0x0 }
  - { offsetInCU: 0x206, offset: 0x206, size: 0x8, addend: 0x0, symName: _.str.16, symObjAddr: 0x616C0, symBinAddr: 0x10005F620, symSize: 0x0 }
  - { offsetInCU: 0x217, offset: 0x217, size: 0x8, addend: 0x0, symName: _.str.17, symObjAddr: 0x61700, symBinAddr: 0x10005F660, symSize: 0x0 }
  - { offsetInCU: 0x234, offset: 0x234, size: 0x8, addend: 0x0, symName: _.str.18, symObjAddr: 0x61760, symBinAddr: 0x10005F6C0, symSize: 0x0 }
  - { offsetInCU: 0x251, offset: 0x251, size: 0x8, addend: 0x0, symName: _.str.19, symObjAddr: 0x61780, symBinAddr: 0x10005F6E0, symSize: 0x0 }
  - { offsetInCU: 0x26E, offset: 0x26E, size: 0x8, addend: 0x0, symName: _.str.20, symObjAddr: 0x617C0, symBinAddr: 0x10005F720, symSize: 0x0 }
  - { offsetInCU: 0x280, offset: 0x280, size: 0x8, addend: 0x0, symName: _.str.21, symObjAddr: 0x61800, symBinAddr: 0x10005F760, symSize: 0x0 }
  - { offsetInCU: 0x292, offset: 0x292, size: 0x8, addend: 0x0, symName: _.str.22, symObjAddr: 0x61840, symBinAddr: 0x10005F7A0, symSize: 0x0 }
  - { offsetInCU: 0x2B0, offset: 0x2B0, size: 0x8, addend: 0x0, symName: _.str.23, symObjAddr: 0x61860, symBinAddr: 0x10005F7C0, symSize: 0x0 }
  - { offsetInCU: 0x2CE, offset: 0x2CE, size: 0x8, addend: 0x0, symName: _.str.36, symObjAddr: 0x61880, symBinAddr: 0x10005F7E0, symSize: 0x0 }
  - { offsetInCU: 0x8BB5, offset: 0x8BB5, size: 0x8, addend: 0x0, symName: __ZNSt3__124__put_character_sequenceB8ue170006IcNS_11char_traitsIcEEEERNS_13basic_ostreamIT_T0_EES7_PKS4_m, symObjAddr: 0x4842C, symBinAddr: 0x10004C0C8, symSize: 0x103C }
  - { offsetInCU: 0xA486, offset: 0xA486, size: 0x8, addend: 0x0, symName: __ZNSt3__17getlineB8ue170006IcNS_11char_traitsIcEENS_9allocatorIcEEEERNS_13basic_istreamIT_T0_EES9_RNS_12basic_stringIS6_S7_T1_EE, symObjAddr: 0x198C, symBinAddr: 0x100005628, symSize: 0x330 }
  - { offsetInCU: 0xA4DE, offset: 0xA4DE, size: 0x8, addend: 0x0, symName: __ZNSt3__1rsB8ue170006IcNS_11char_traitsIcEENS_9allocatorIcEEEERNS_13basic_istreamIT_T0_EES9_RNS_12basic_stringIS6_S7_T1_EE, symObjAddr: 0x226C, symBinAddr: 0x100005F08, symSize: 0x18B8 }
  - { offsetInCU: 0xA5B7, offset: 0xA5B7, size: 0x8, addend: 0x0, symName: __ZNSt3__1rsB8ue170006IcNS_11char_traitsIcEEEERNS_13basic_istreamIT_T0_EES7_RS4_, symObjAddr: 0x3EA8, symBinAddr: 0x100007B44, symSize: 0xCF4 }
  - { offsetInCU: 0xA641, offset: 0xA641, size: 0x8, addend: 0x0, symName: __ZNSt3__1lsB8ue170006INS_11char_traitsIcEEEERNS_13basic_ostreamIcT_EES6_PKc, symObjAddr: 0x8408, symBinAddr: 0x10000C0A4, symSize: 0xD0 }
  - { offsetInCU: 0xA687, offset: 0xA687, size: 0x8, addend: 0x0, symName: __ZNSt3__1neB8ue170006IPcEEbRKNS_11__wrap_iterIT_EES6_, symObjAddr: 0x9448, symBinAddr: 0x10000D0E4, symSize: 0xC4 }
  - { offsetInCU: 0xA6CA, offset: 0xA6CA, size: 0x8, addend: 0x0, symName: __ZNSt3__1lsB8ue170006INS_11char_traitsIcEEEERNS_13basic_ostreamIcT_EES6_c, symObjAddr: 0x12778, symBinAddr: 0x100016414, symSize: 0x2AC }
  - { offsetInCU: 0xA715, offset: 0xA715, size: 0x8, addend: 0x0, symName: __ZNSt3__1eqB8ue170006IPcEEbRKNS_11__wrap_iterIT_EES6_, symObjAddr: 0x12A24, symBinAddr: 0x1000166C0, symSize: 0x9C }
  - { offsetInCU: 0xA758, offset: 0xA758, size: 0x8, addend: 0x0, symName: __ZNSt3__17getlineB8ue170006IcNS_11char_traitsIcEENS_9allocatorIcEEEERNS_13basic_istreamIT_T0_EES9_RNS_12basic_stringIS6_S7_T1_EES6_, symObjAddr: 0x135B4, symBinAddr: 0x100017250, symSize: 0xEAC }
  - { offsetInCU: 0xAFDE, offset: 0xAFDE, size: 0x8, addend: 0x0, symName: __ZNSt3__19use_facetB8ue170006INS_5ctypeIcEEEERKT_RKNS_6localeE, symObjAddr: 0x17550, symBinAddr: 0x10001B1EC, symSize: 0x188 }
  - { offsetInCU: 0xB3BC, offset: 0xB3BC, size: 0x8, addend: 0x0, symName: __ZNSt3__122__make_exception_guardB8ue170006INS_6vectorI5PointNS_9allocatorIS2_EEE16__destroy_vectorEEENS_28__exception_guard_exceptionsIT_EES8_, symObjAddr: 0x18134, symBinAddr: 0x10001BDD0, symSize: 0x2BC }
  - { offsetInCU: 0xB3F5, offset: 0xB3F5, size: 0x8, addend: 0x0, symName: __ZNSt3__119__allocate_at_leastB8ue170006INS_9allocatorI5PointEEEENS_19__allocation_resultINS_16allocator_traitsIT_E7pointerEEERS6_m, symObjAddr: 0x19F28, symBinAddr: 0x10001DBC4, symSize: 0x28C }
  - { offsetInCU: 0xB43A, offset: 0xB43A, size: 0x8, addend: 0x0, symName: __ZNSt3__13minB8ue170006ImEERKT_S3_S3_, symObjAddr: 0x1A6F8, symBinAddr: 0x10001E394, symSize: 0x104 }
  - { offsetInCU: 0xB667, offset: 0xB667, size: 0x8, addend: 0x0, symName: __ZNSt3__13minB8ue170006ImNS_6__lessIvvEEEERKT_S5_S5_T0_, symObjAddr: 0x1A918, symBinAddr: 0x10001E5B4, symSize: 0x2C0 }
  - { offsetInCU: 0xB70C, offset: 0xB70C, size: 0x8, addend: 0x0, symName: __ZNSt3__120__throw_length_errorB8ue170006EPKc, symObjAddr: 0x1AE94, symBinAddr: 0x10001EB30, symSize: 0xB4 }
  - { offsetInCU: 0xB736, offset: 0xB736, size: 0x8, addend: 0x0, symName: __ZNSt3__117__libcpp_allocateB8ue170006Emm, symObjAddr: 0x1B238, symBinAddr: 0x10001EED4, symSize: 0x60 }
  - { offsetInCU: 0xB790, offset: 0xB790, size: 0x8, addend: 0x0, symName: __ZNSt3__124__is_overaligned_for_newB8ue170006Em, symObjAddr: 0x1B298, symBinAddr: 0x10001EF34, symSize: 0x20 }
  - { offsetInCU: 0xB7BE, offset: 0xB7BE, size: 0x8, addend: 0x0, symName: __ZNSt3__121__libcpp_operator_newB8ue170006IJmSt11align_val_tEEEPvDpT_, symObjAddr: 0x1B2B8, symBinAddr: 0x10001EF54, symSize: 0x6C }
  - { offsetInCU: 0xB80B, offset: 0xB80B, size: 0x8, addend: 0x0, symName: __ZNSt3__121__libcpp_operator_newB8ue170006IJmEEEPvDpT_, symObjAddr: 0x1B324, symBinAddr: 0x10001EFC0, symSize: 0x24 }
  - { offsetInCU: 0xB844, offset: 0xB844, size: 0x8, addend: 0x0, symName: __ZNSt3__112__to_addressB8ue170006I5PointEEPT_S3_, symObjAddr: 0x1B924, symBinAddr: 0x10001F5C0, symSize: 0x14 }
  - { offsetInCU: 0xB879, offset: 0xB879, size: 0x8, addend: 0x0, symName: __ZNSt3__119__libcpp_deallocateB8ue170006EPvmm, symObjAddr: 0x1DC38, symBinAddr: 0x1000218D4, symSize: 0x60 }
  - { offsetInCU: 0xB8DE, offset: 0xB8DE, size: 0x8, addend: 0x0, symName: __ZNSt3__127__do_deallocate_handle_sizeB8ue170006IJSt11align_val_tEEEvPvmDpT_, symObjAddr: 0x1DC98, symBinAddr: 0x100021934, symSize: 0x30 }
  - { offsetInCU: 0xB931, offset: 0xB931, size: 0x8, addend: 0x0, symName: __ZNSt3__127__do_deallocate_handle_sizeB8ue170006IJEEEvPvmDpT_, symObjAddr: 0x1DCC8, symBinAddr: 0x100021964, symSize: 0x28 }
  - { offsetInCU: 0xB96F, offset: 0xB96F, size: 0x8, addend: 0x0, symName: __ZNSt3__124__libcpp_operator_deleteB8ue170006IJPvSt11align_val_tEEEvDpT_, symObjAddr: 0x1DCF0, symBinAddr: 0x10002198C, symSize: 0x2C }
  - { offsetInCU: 0xB9B8, offset: 0xB9B8, size: 0x8, addend: 0x0, symName: __ZNSt3__124__libcpp_operator_deleteB8ue170006IJPvEEEvDpT_, symObjAddr: 0x1DD1C, symBinAddr: 0x1000219B8, symSize: 0x24 }
  - { offsetInCU: 0xB9ED, offset: 0xB9ED, size: 0x8, addend: 0x0, symName: __ZNSt3__112__to_addressB8ue170006INS_6vectorI5PointNS_9allocatorIS2_EEEEEEPT_S7_, symObjAddr: 0x203FC, symBinAddr: 0x100024098, symSize: 0x14 }
  - { offsetInCU: 0xBA22, offset: 0xBA22, size: 0x8, addend: 0x0, symName: __ZNSt3__130__uninitialized_allocator_copyB8ue170006INS_9allocatorI5PointEEPS2_S4_S4_EET2_RT_T0_T1_S5_, symObjAddr: 0x22340, symBinAddr: 0x100025FDC, symSize: 0x334 }
  - { offsetInCU: 0xBAC8, offset: 0xBAC8, size: 0x8, addend: 0x0, symName: __ZNSt3__114__unwrap_rangeB8ue170006IP5PointS2_EENS_4pairIT0_S4_EET_S6_, symObjAddr: 0x22674, symBinAddr: 0x100026310, symSize: 0x350 }
  - { offsetInCU: 0xBB16, offset: 0xBB16, size: 0x8, addend: 0x0, symName: __ZNSt3__135__uninitialized_allocator_copy_implB8ue170006INS_9allocatorI5PointEES2_S2_S2_LPv0EEEPT2_RT_PT0_SA_S6_, symObjAddr: 0x229C4, symBinAddr: 0x100026660, symSize: 0x38 }
  - { offsetInCU: 0xBB97, offset: 0xBB97, size: 0x8, addend: 0x0, symName: __ZNSt3__113__unwrap_iterB8ue170006IP5PointNS_18__unwrap_iter_implIS2_Lb1EEELi0EEEDTclsrT0_8__unwrapclsr3stdE7declvalIT_EEEES6_, symObjAddr: 0x229FC, symBinAddr: 0x100026698, symSize: 0x24 }
  - { offsetInCU: 0xBBDB, offset: 0xBBDB, size: 0x8, addend: 0x0, symName: __ZNSt3__113__rewrap_iterB8ue170006IP5PointS2_NS_18__unwrap_iter_implIS2_Lb1EEEEET_S5_T0_, symObjAddr: 0x22A20, symBinAddr: 0x1000266BC, symSize: 0x48 }
  - { offsetInCU: 0xBC30, offset: 0xBC30, size: 0x8, addend: 0x0, symName: __ZNSt3__19make_pairB8ue170006IP5PointS2_EENS_4pairINS_18__unwrap_ref_decayIT_E4typeENS4_IT0_E4typeEEEOS5_OS8_, symObjAddr: 0x22A68, symBinAddr: 0x100026704, symSize: 0x2A0 }
  - { offsetInCU: 0xBD84, offset: 0xBD84, size: 0x8, addend: 0x0, symName: __ZNSt3__14copyB8ue170006IP5PointS2_EET0_T_S4_S3_, symObjAddr: 0x22FA0, symBinAddr: 0x100026C3C, symSize: 0x2B4 }
  - { offsetInCU: 0xBDE1, offset: 0xBDE1, size: 0x8, addend: 0x0, symName: __ZNSt3__16__copyB8ue170006INS_17_ClassicAlgPolicyEP5PointS3_S3_EENS_4pairIT0_T2_EES5_T1_S6_, symObjAddr: 0x23254, symBinAddr: 0x100026EF0, symSize: 0x22C }
  - { offsetInCU: 0xBE50, offset: 0xBE50, size: 0x8, addend: 0x0, symName: __ZNSt3__123__dispatch_copy_or_moveB8ue170006INS_17_ClassicAlgPolicyENS_11__copy_loopIS1_EENS_14__copy_trivialEP5PointS6_S6_EENS_4pairIT2_T4_EES8_T3_S9_, symObjAddr: 0x23480, symBinAddr: 0x10002711C, symSize: 0x22C }
  - { offsetInCU: 0xBED1, offset: 0xBED1, size: 0x8, addend: 0x0, symName: __ZNSt3__121__unwrap_and_dispatchB8ue170006INS_10__overloadINS_11__copy_loopINS_17_ClassicAlgPolicyEEENS_14__copy_trivialEEEP5PointS8_S8_Li0EEENS_4pairIT0_T2_EESA_T1_SB_, symObjAddr: 0x236AC, symBinAddr: 0x100027348, symSize: 0x634 }
  - { offsetInCU: 0xBFB0, offset: 0xBFB0, size: 0x8, addend: 0x0, symName: __ZNSt3__114__rewrap_rangeB8ue170006IP5PointS2_EET_S3_T0_, symObjAddr: 0x23F3C, symBinAddr: 0x100027BD8, symSize: 0x2C }
  - { offsetInCU: 0xBFFC, offset: 0xBFFC, size: 0x8, addend: 0x0, symName: __ZNSt3__119__copy_trivial_implB8ue170006I5PointS1_EENS_4pairIPT_PT0_EES4_S4_S6_, symObjAddr: 0x23F68, symBinAddr: 0x100027C04, symSize: 0x480 }
  - { offsetInCU: 0xC06B, offset: 0xC06B, size: 0x8, addend: 0x0, symName: __ZNSt3__119__constexpr_memmoveB8ue170006I5PointS1_Li0EEEPT_S3_PT0_NS_15__element_countE, symObjAddr: 0x243E8, symBinAddr: 0x100028084, symSize: 0x64 }
  - { offsetInCU: 0xC0D9, offset: 0xC0D9, size: 0x8, addend: 0x0, symName: __ZNSt3__19make_pairB8ue170006IRP5PointS2_EENS_4pairINS_18__unwrap_ref_decayIT_E4typeENS5_IT0_E4typeEEEOS6_OS9_, symObjAddr: 0x2444C, symBinAddr: 0x1000280E8, symSize: 0x2A0 }
  - { offsetInCU: 0xC17D, offset: 0xC17D, size: 0x8, addend: 0x0, symName: __ZNSt3__13maxB8ue170006ImEERKT_S3_S3_, symObjAddr: 0x257A0, symBinAddr: 0x10002943C, symSize: 0x104 }
  - { offsetInCU: 0xC1C0, offset: 0xC1C0, size: 0x8, addend: 0x0, symName: __ZNSt3__13maxB8ue170006ImNS_6__lessIvvEEEERKT_S5_S5_T0_, symObjAddr: 0x25B78, symBinAddr: 0x100029814, symSize: 0x2C0 }
  - { offsetInCU: 0xC220, offset: 0xC220, size: 0x8, addend: 0x0, symName: __ZNSt3__119__allocate_at_leastB8ue170006INS_9allocatorINS_6vectorI5PointNS1_IS3_EEEEEEEENS_19__allocation_resultINS_16allocator_traitsIT_E7pointerEEERS9_m, symObjAddr: 0x266A8, symBinAddr: 0x10002A344, symSize: 0x28C }
  - { offsetInCU: 0xC265, offset: 0xC265, size: 0x8, addend: 0x0, symName: __ZNSt3__142__uninitialized_allocator_move_if_noexceptB8ue170006INS_9allocatorINS_6vectorI5PointNS1_IS3_EEEEEENS_16reverse_iteratorIPS5_EES9_S9_EET2_RT_T0_T1_SA_, symObjAddr: 0x27B5C, symBinAddr: 0x10002B7F8, symSize: 0x5D8 }
  - { offsetInCU: 0xC31A, offset: 0xC31A, size: 0x8, addend: 0x0, symName: __ZNSt3__14swapB8ue170006IPNS_6vectorI5PointNS_9allocatorIS2_EEEEEENS_9enable_ifIXaasr21is_move_constructibleIT_EE5valuesr18is_move_assignableIS8_EE5valueEvE4typeERS8_SB_, symObjAddr: 0x28264, symBinAddr: 0x10002BF00, symSize: 0x1C0 }
  - { offsetInCU: 0xC36B, offset: 0xC36B, size: 0x8, addend: 0x0, symName: __ZNSt3__122__make_exception_guardB8ue170006INS_29_AllocatorDestroyRangeReverseINS_9allocatorINS_6vectorI5PointNS2_IS4_EEEEEENS_16reverse_iteratorIPS6_EEEEEENS_28__exception_guard_exceptionsIT_EESD_, symObjAddr: 0x2879C, symBinAddr: 0x10002C438, symSize: 0x23C }
  - { offsetInCU: 0xC3A2, offset: 0xC3A2, size: 0x8, addend: 0x0, symName: __ZNSt3__1neB8ue170006IPNS_6vectorI5PointNS_9allocatorIS2_EEEES6_EEbRKNS_16reverse_iteratorIT_EERKNS7_IT0_EE, symObjAddr: 0x28A68, symBinAddr: 0x10002C704, symSize: 0x9C }
  - { offsetInCU: 0xC3EE, offset: 0xC3EE, size: 0x8, addend: 0x0, symName: __ZNSt3__112__to_addressB8ue170006INS_16reverse_iteratorIPNS_6vectorI5PointNS_9allocatorIS3_EEEEEEvEEu7__decayIDTclsr19__to_address_helperIT_EE6__callclsr3stdE7declvalIRKS9_EEEEESB_, symObjAddr: 0x28B90, symBinAddr: 0x10002C82C, symSize: 0x6C }
  - { offsetInCU: 0xC44D, offset: 0xC44D, size: 0x8, addend: 0x0, symName: __ZNSt3__119__allocator_destroyB8ue170006INS_9allocatorINS_6vectorI5PointNS1_IS3_EEEEEENS_16reverse_iteratorINS7_IPS5_EEEESA_EEvRT_T0_T1_, symObjAddr: 0x2A360, symBinAddr: 0x10002DFFC, symSize: 0x1A4 }
  - { offsetInCU: 0xC4B2, offset: 0xC4B2, size: 0x8, addend: 0x0, symName: __ZNSt3__1neB8ue170006INS_16reverse_iteratorIPNS_6vectorI5PointNS_9allocatorIS3_EEEEEES8_EEbRKNS1_IT_EERKNS1_IT0_EE, symObjAddr: 0x2A7A0, symBinAddr: 0x10002E43C, symSize: 0x324 }
  - { offsetInCU: 0xC500, offset: 0xC500, size: 0x8, addend: 0x0, symName: __ZNSt3__112__to_addressB8ue170006INS_16reverse_iteratorINS1_IPNS_6vectorI5PointNS_9allocatorIS3_EEEEEEEEvEEu7__decayIDTclsr19__to_address_helperIT_EE6__callclsr3stdE7declvalIRKSA_EEEEESC_, symObjAddr: 0x2AAF0, symBinAddr: 0x10002E78C, symSize: 0x6C }
  - { offsetInCU: 0xC55F, offset: 0xC55F, size: 0x8, addend: 0x0, symName: __ZNSt3__112__to_addressB8ue170006I10CoordinateEEPT_S3_, symObjAddr: 0x2F834, symBinAddr: 0x1000334D0, symSize: 0x14 }
  - { offsetInCU: 0xC594, offset: 0xC594, size: 0x8, addend: 0x0, symName: __ZNSt3__1neB8ue170006ERKNS_16__deque_iteratorI10CoordinatePS1_RS1_PS2_lLl256EEES7_, symObjAddr: 0x316CC, symBinAddr: 0x100035368, symSize: 0xC4 }
  - { offsetInCU: 0xC5D1, offset: 0xC5D1, size: 0x8, addend: 0x0, symName: __ZNSt3__1eqB8ue170006ERKNS_16__deque_iteratorI10CoordinatePS1_RS1_PS2_lLl256EEES7_, symObjAddr: 0x322FC, symBinAddr: 0x100035F98, symSize: 0x124 }
  - { offsetInCU: 0xC60E, offset: 0xC60E, size: 0x8, addend: 0x0, symName: __ZNSt3__112__to_addressB8ue170006IP10CoordinateEEPT_S4_, symObjAddr: 0x334F4, symBinAddr: 0x100037190, symSize: 0x14 }
  - { offsetInCU: 0xCA9C, offset: 0xCA9C, size: 0x8, addend: 0x0, symName: __ZNSt3__14swapB8ue170006IPP10CoordinateEENS_9enable_ifIXaasr21is_move_constructibleIT_EE5valuesr18is_move_assignableIS5_EE5valueEvE4typeERS5_S8_, symObjAddr: 0x3B088, symBinAddr: 0x10003ED24, symSize: 0x1C0 }
  - { offsetInCU: 0xCAED, offset: 0xCAED, size: 0x8, addend: 0x0, symName: __ZNSt3__14moveB8ue170006IPP10CoordinateS3_EET0_T_S5_S4_, symObjAddr: 0x3B538, symBinAddr: 0x10003F1D4, symSize: 0x2B4 }
  - { offsetInCU: 0xCB66, offset: 0xCB66, size: 0x8, addend: 0x0, symName: __ZNSt3__16__moveB8ue170006INS_17_ClassicAlgPolicyEPP10CoordinateS4_S4_EENS_4pairIT0_T2_EES6_T1_S7_, symObjAddr: 0x3BD0C, symBinAddr: 0x10003F9A8, symSize: 0x22C }
  - { offsetInCU: 0xCBD5, offset: 0xCBD5, size: 0x8, addend: 0x0, symName: __ZNSt3__123__dispatch_copy_or_moveB8ue170006INS_17_ClassicAlgPolicyENS_11__move_loopIS1_EENS_14__move_trivialEPP10CoordinateS7_S7_EENS_4pairIT2_T4_EES9_T3_SA_, symObjAddr: 0x3BF38, symBinAddr: 0x10003FBD4, symSize: 0x22C }
  - { offsetInCU: 0xCC56, offset: 0xCC56, size: 0x8, addend: 0x0, symName: __ZNSt3__121__unwrap_and_dispatchB8ue170006INS_10__overloadINS_11__move_loopINS_17_ClassicAlgPolicyEEENS_14__move_trivialEEEPP10CoordinateS9_S9_Li0EEENS_4pairIT0_T2_EESB_T1_SC_, symObjAddr: 0x3C164, symBinAddr: 0x10003FE00, symSize: 0x634 }
  - { offsetInCU: 0xCCEF, offset: 0xCCEF, size: 0x8, addend: 0x0, symName: __ZNSt3__114__unwrap_rangeB8ue170006IPP10CoordinateS3_EENS_4pairIT0_S5_EET_S7_, symObjAddr: 0x3C798, symBinAddr: 0x100040434, symSize: 0x350 }
  - { offsetInCU: 0xCEB5, offset: 0xCEB5, size: 0x8, addend: 0x0, symName: __ZNSt3__113__unwrap_iterB8ue170006IPP10CoordinateNS_18__unwrap_iter_implIS3_Lb1EEELi0EEEDTclsrT0_8__unwrapclsr3stdE7declvalIT_EEEES7_, symObjAddr: 0x3CD44, symBinAddr: 0x1000409E0, symSize: 0x24 }
  - { offsetInCU: 0xCEF9, offset: 0xCEF9, size: 0x8, addend: 0x0, symName: __ZNSt3__19make_pairB8ue170006IPP10CoordinateS3_EENS_4pairINS_18__unwrap_ref_decayIT_E4typeENS5_IT0_E4typeEEEOS6_OS9_, symObjAddr: 0x3CD68, symBinAddr: 0x100040A04, symSize: 0x2A0 }
  - { offsetInCU: 0xCF4A, offset: 0xCF4A, size: 0x8, addend: 0x0, symName: __ZNSt3__114__rewrap_rangeB8ue170006IPP10CoordinateS3_EET_S4_T0_, symObjAddr: 0x3D008, symBinAddr: 0x100040CA4, symSize: 0x2C }
  - { offsetInCU: 0xCF96, offset: 0xCF96, size: 0x8, addend: 0x0, symName: __ZNSt3__113__rewrap_iterB8ue170006IPP10CoordinateS3_NS_18__unwrap_iter_implIS3_Lb1EEEEET_S6_T0_, symObjAddr: 0x3D034, symBinAddr: 0x100040CD0, symSize: 0x48 }
  - { offsetInCU: 0xCFEB, offset: 0xCFEB, size: 0x8, addend: 0x0, symName: __ZNSt3__119__copy_trivial_implB8ue170006IP10CoordinateS2_EENS_4pairIPT_PT0_EES5_S5_S7_, symObjAddr: 0x3D07C, symBinAddr: 0x100040D18, symSize: 0x480 }
  - { offsetInCU: 0xD05A, offset: 0xD05A, size: 0x8, addend: 0x0, symName: __ZNSt3__119__constexpr_memmoveB8ue170006IP10CoordinateS2_Li0EEEPT_S4_PT0_NS_15__element_countE, symObjAddr: 0x3D4FC, symBinAddr: 0x100041198, symSize: 0x64 }
  - { offsetInCU: 0xD0C8, offset: 0xD0C8, size: 0x8, addend: 0x0, symName: __ZNSt3__19make_pairB8ue170006IRPP10CoordinateS3_EENS_4pairINS_18__unwrap_ref_decayIT_E4typeENS6_IT0_E4typeEEEOS7_OSA_, symObjAddr: 0x3D560, symBinAddr: 0x1000411FC, symSize: 0x2A0 }
  - { offsetInCU: 0xD16C, offset: 0xD16C, size: 0x8, addend: 0x0, symName: __ZNSt3__18distanceB8ue170006INS_13move_iteratorIPP10CoordinateEEEENS_15iterator_traitsIT_E15difference_typeES7_S7_, symObjAddr: 0x3E4A0, symBinAddr: 0x10004213C, symSize: 0x350 }
  - { offsetInCU: 0xD1B7, offset: 0xD1B7, size: 0x8, addend: 0x0, symName: __ZNSt3__110__distanceB8ue170006INS_13move_iteratorIPP10CoordinateEEEENS_15iterator_traitsIT_E15difference_typeES7_S7_NS_26random_access_iterator_tagE, symObjAddr: 0x3F4E4, symBinAddr: 0x100043180, symSize: 0x274 }
  - { offsetInCU: 0xD20D, offset: 0xD20D, size: 0x8, addend: 0x0, symName: __ZNSt3__1miB8ue170006IPP10CoordinateS3_EEDTmicldtfp_4baseEcldtfp0_4baseEERKNS_13move_iteratorIT_EERKNS5_IT0_EE, symObjAddr: 0x3F758, symBinAddr: 0x1000433F4, symSize: 0x9C }
  - { offsetInCU: 0xD25C, offset: 0xD25C, size: 0x8, addend: 0x0, symName: __ZNSt3__113move_backwardB8ue170006IPP10CoordinateS3_EET0_T_S5_S4_, symObjAddr: 0x3FC0C, symBinAddr: 0x1000438A8, symSize: 0x2B4 }
  - { offsetInCU: 0xD2B9, offset: 0xD2B9, size: 0x8, addend: 0x0, symName: __ZNSt3__115__move_backwardB8ue170006INS_17_ClassicAlgPolicyEPP10CoordinateS4_S4_EENS_4pairIT0_T2_EES6_T1_S7_, symObjAddr: 0x3FEC0, symBinAddr: 0x100043B5C, symSize: 0x22C }
  - { offsetInCU: 0xD328, offset: 0xD328, size: 0x8, addend: 0x0, symName: __ZNSt3__123__dispatch_copy_or_moveB8ue170006INS_17_ClassicAlgPolicyENS_20__move_backward_loopIS1_EENS_23__move_backward_trivialEPP10CoordinateS7_S7_EENS_4pairIT2_T4_EES9_T3_SA_, symObjAddr: 0x400EC, symBinAddr: 0x100043D88, symSize: 0x22C }
  - { offsetInCU: 0xD3A9, offset: 0xD3A9, size: 0x8, addend: 0x0, symName: __ZNSt3__121__unwrap_and_dispatchB8ue170006INS_10__overloadINS_20__move_backward_loopINS_17_ClassicAlgPolicyEEENS_23__move_backward_trivialEEEPP10CoordinateS9_S9_Li0EEENS_4pairIT0_T2_EESB_T1_SC_, symObjAddr: 0x40318, symBinAddr: 0x100043FB4, symSize: 0x634 }
  - { offsetInCU: 0xD488, offset: 0xD488, size: 0x8, addend: 0x0, symName: __ZNSt3__128__copy_backward_trivial_implB8ue170006IP10CoordinateS2_EENS_4pairIPT_PT0_EES5_S5_S7_, symObjAddr: 0x40BA8, symBinAddr: 0x100044844, symSize: 0x4E0 }
  - { offsetInCU: 0xD4FA, offset: 0xD4FA, size: 0x8, addend: 0x0, symName: __ZNSt3__19make_pairB8ue170006IRPP10CoordinateS4_EENS_4pairINS_18__unwrap_ref_decayIT_E4typeENS6_IT0_E4typeEEEOS7_OSA_, symObjAddr: 0x41088, symBinAddr: 0x100044D24, symSize: 0x2A0 }
  - { offsetInCU: 0xD54B, offset: 0xD54B, size: 0x8, addend: 0x0, symName: __ZNSt3__119__allocate_at_leastB8ue170006INS_9allocatorIP10CoordinateEEEENS_19__allocation_resultINS_16allocator_traitsIT_E7pointerEEERS7_m, symObjAddr: 0x41E20, symBinAddr: 0x100045ABC, symSize: 0x28C }
  - { offsetInCU: 0xD590, offset: 0xD590, size: 0x8, addend: 0x0, symName: __ZNSt3__116__pad_and_outputB8ue170006IcNS_11char_traitsIcEEEENS_19ostreambuf_iteratorIT_T0_EES6_PKS4_S8_S8_RNS_8ios_baseES4_, symObjAddr: 0x495AC, symBinAddr: 0x10004D248, symSize: 0xB88 }
  - { offsetInCU: 0xD66D, offset: 0xD66D, size: 0x8, addend: 0x0, symName: __ZNSt3__112__to_addressB8ue170006IcEEPT_S2_, symObjAddr: 0x4AC64, symBinAddr: 0x10004E900, symSize: 0x14 }
  - { offsetInCU: 0xD6A2, offset: 0xD6A2, size: 0x8, addend: 0x0, symName: __ZNSt3__118__constexpr_strlenB8ue170006EPKc, symObjAddr: 0x4AF60, symBinAddr: 0x10004EBFC, symSize: 0x24 }
  - { offsetInCU: 0xDAFA, offset: 0xDAFA, size: 0x8, addend: 0x0, symName: __ZSt28__throw_bad_array_new_lengthB8ue170006v, symObjAddr: 0x1B1BC, symBinAddr: 0x10001EE58, symSize: 0x7C }
  - { offsetInCU: 0xE345, offset: 0xE345, size: 0x8, addend: 0x0, symName: __ZNSt3__16vectorINS0_I5PointNS_9allocatorIS1_EEEENS2_IS4_EEE26__swap_out_circular_bufferERNS_14__split_bufferIS4_RS5_EE, symObjAddr: 0x1F844, symBinAddr: 0x1000234E0, symSize: 0x85C }
  - { offsetInCU: 0x10AAF, offset: 0x10AAF, size: 0x8, addend: 0x0, symName: __ZN13Treasure_Hunt10create_mapEv, symObjAddr: 0x0, symBinAddr: 0x100003C9C, symSize: 0x1914 }
  - { offsetInCU: 0x10BA7, offset: 0x10BA7, size: 0x8, addend: 0x0, symName: __ZNSt3__112basic_stringIcNS_11char_traitsIcEENS_9allocatorIcEEEC1B8ue170006Ev, symObjAddr: 0x1914, symBinAddr: 0x1000055B0, symSize: 0x78 }
  - { offsetInCU: 0x10BD1, offset: 0x10BD1, size: 0x8, addend: 0x0, symName: __ZNKSt3__19basic_iosIcNS_11char_traitsIcEEEcvbB8ue170006Ev, symObjAddr: 0x1CBC, symBinAddr: 0x100005958, symSize: 0xFC }
  - { offsetInCU: 0x10BF7, offset: 0x10BF7, size: 0x8, addend: 0x0, symName: __ZNSt3__112basic_stringIcNS_11char_traitsIcEENS_9allocatorIcEEEixB8ue170006Em, symObjAddr: 0x1DB8, symBinAddr: 0x100005A54, symSize: 0x170 }
  - { offsetInCU: 0x10C2C, offset: 0x10C2C, size: 0x8, addend: 0x0, symName: __ZNSt3__16vectorINS0_I5PointNS_9allocatorIS1_EEEENS2_IS4_EEE6resizeEmRKS4_, symObjAddr: 0x1F28, symBinAddr: 0x100005BC4, symSize: 0x24C }
  - { offsetInCU: 0x10C81, offset: 0x10C81, size: 0x8, addend: 0x0, symName: __ZNSt3__16vectorI5PointNS_9allocatorIS1_EEEC1Em, symObjAddr: 0x2174, symBinAddr: 0x100005E10, symSize: 0x80 }
  - { offsetInCU: 0x10CBC, offset: 0x10CBC, size: 0x8, addend: 0x0, symName: __ZNSt3__16vectorI5PointNS_9allocatorIS1_EEED1B8ue170006Ev, symObjAddr: 0x21F4, symBinAddr: 0x100005E90, symSize: 0x78 }
  - { offsetInCU: 0x10CE6, offset: 0x10CE6, size: 0x8, addend: 0x0, symName: __ZNSt3__16vectorINS0_I5PointNS_9allocatorIS1_EEEENS2_IS4_EEEixB8ue170006Em, symObjAddr: 0x3B24, symBinAddr: 0x1000077C0, symSize: 0x1D4 }
  - { offsetInCU: 0x10D1D, offset: 0x10D1D, size: 0x8, addend: 0x0, symName: __ZNSt3__16vectorI5PointNS_9allocatorIS1_EEEixB8ue170006Em, symObjAddr: 0x3CF8, symBinAddr: 0x100007994, symSize: 0x1B0 }
  - { offsetInCU: 0x10D54, offset: 0x10D54, size: 0x8, addend: 0x0, symName: __ZN13Treasure_Hunt14is_valid_indexEcmm, symObjAddr: 0x4B9C, symBinAddr: 0x100008838, symSize: 0x26C }
  - { offsetInCU: 0x10DA6, offset: 0x10DA6, size: 0x8, addend: 0x0, symName: __ZNKSt3__16vectorINS0_I5PointNS_9allocatorIS1_EEEENS2_IS4_EEE4sizeB8ue170006Ev, symObjAddr: 0x4E08, symBinAddr: 0x100008AA4, symSize: 0xF8 }
  - { offsetInCU: 0x10DCC, offset: 0x10DCC, size: 0x8, addend: 0x0, symName: __ZN13Treasure_Hunt14captain_searchEv, symObjAddr: 0x4F00, symBinAddr: 0x100008B9C, symSize: 0x2CB4 }
  - { offsetInCU: 0x10E7F, offset: 0x10E7F, size: 0x8, addend: 0x0, symName: __ZNSt3__15dequeI10CoordinateNS_9allocatorIS1_EEEC1B8ue170006Ev, symObjAddr: 0x7BB4, symBinAddr: 0x10000B850, symSize: 0x78 }
  - { offsetInCU: 0x10EA9, offset: 0x10EA9, size: 0x8, addend: 0x0, symName: __ZNSt3__15dequeI10CoordinateNS_9allocatorIS1_EEE9push_backERKS1_, symObjAddr: 0x7C2C, symBinAddr: 0x10000B8C8, symSize: 0x3A8 }
  - { offsetInCU: 0x10EF2, offset: 0x10EF2, size: 0x8, addend: 0x0, symName: __ZNSt3__15dequeI10CoordinateNS_9allocatorIS1_EEE10push_frontERKS1_, symObjAddr: 0x7FD4, symBinAddr: 0x10000BC70, symSize: 0x434 }
  - { offsetInCU: 0x10F3B, offset: 0x10F3B, size: 0x8, addend: 0x0, symName: __ZNKSt3__15dequeI10CoordinateNS_9allocatorIS1_EEE5emptyB8ue170006Ev, symObjAddr: 0x84D8, symBinAddr: 0x10000C174, symSize: 0x78 }
  - { offsetInCU: 0x10F61, offset: 0x10F61, size: 0x8, addend: 0x0, symName: __ZNSt3__15dequeI10CoordinateNS_9allocatorIS1_EEE4backEv, symObjAddr: 0x8550, symBinAddr: 0x10000C1EC, symSize: 0x400 }
  - { offsetInCU: 0x10F98, offset: 0x10F98, size: 0x8, addend: 0x0, symName: __ZNSt3__15dequeI10CoordinateNS_9allocatorIS1_EEE8pop_backEv, symObjAddr: 0x8950, symBinAddr: 0x10000C5EC, symSize: 0x4EC }
  - { offsetInCU: 0x10FFC, offset: 0x10FFC, size: 0x8, addend: 0x0, symName: __ZNSt3__112basic_stringIcNS_11char_traitsIcEENS_9allocatorIcEEE5beginB8ue170006Ev, symObjAddr: 0x8E3C, symBinAddr: 0x10000CAD8, symSize: 0x29C }
  - { offsetInCU: 0x11023, offset: 0x11023, size: 0x8, addend: 0x0, symName: __ZNSt3__112basic_stringIcNS_11char_traitsIcEENS_9allocatorIcEEE3endB8ue170006Ev, symObjAddr: 0x90D8, symBinAddr: 0x10000CD74, symSize: 0x370 }
  - { offsetInCU: 0x1104A, offset: 0x1104A, size: 0x8, addend: 0x0, symName: __ZNKSt3__111__wrap_iterIPcEdeB8ue170006Ev, symObjAddr: 0x950C, symBinAddr: 0x10000D1A8, symSize: 0xD8 }
  - { offsetInCU: 0x11070, offset: 0x11070, size: 0x8, addend: 0x0, symName: __ZN13Treasure_Hunt4moveER10Coordinatec, symObjAddr: 0x95E4, symBinAddr: 0x10000D280, symSize: 0x1EC }
  - { offsetInCU: 0x110B4, offset: 0x110B4, size: 0x8, addend: 0x0, symName: __ZN13Treasure_Hunt17first_mate_searchE10Coordinate, symObjAddr: 0x981C, symBinAddr: 0x10000D4B8, symSize: 0x1E90 }
  - { offsetInCU: 0x11188, offset: 0x11188, size: 0x8, addend: 0x0, symName: __ZNSt3__111__wrap_iterIPcEppB8ue170006Ev, symObjAddr: 0xB6AC, symBinAddr: 0x10000F348, symSize: 0x1A8 }
  - { offsetInCU: 0x111AE, offset: 0x111AE, size: 0x8, addend: 0x0, symName: __ZNSt3__15dequeI10CoordinateNS_9allocatorIS1_EEED1B8ue170006Ev, symObjAddr: 0xB854, symBinAddr: 0x10000F4F0, symSize: 0x78 }
  - { offsetInCU: 0x111D8, offset: 0x111D8, size: 0x8, addend: 0x0, symName: __ZN13Treasure_Hunt11print_statsEv, symObjAddr: 0xB8CC, symBinAddr: 0x10000F568, symSize: 0x1038 }
  - { offsetInCU: 0x11200, offset: 0x11200, size: 0x8, addend: 0x0, symName: __ZN13Treasure_Hunt4huntEv, symObjAddr: 0xC904, symBinAddr: 0x1000105A0, symSize: 0xC24 }
  - { offsetInCU: 0x11228, offset: 0x11228, size: 0x8, addend: 0x0, symName: __ZN13Treasure_Hunt10print_pathEv, symObjAddr: 0xD528, symBinAddr: 0x1000111C4, symSize: 0x495C }
  - { offsetInCU: 0x112E2, offset: 0x112E2, size: 0x8, addend: 0x0, symName: __ZN13Treasure_Hunt9backtraceEv, symObjAddr: 0x11ED0, symBinAddr: 0x100015B6C, symSize: 0x85C }
  - { offsetInCU: 0x1131D, offset: 0x1131D, size: 0x8, addend: 0x0, symName: __ZNKSt3__111__wrap_iterIPcE4baseB8ue170006Ev, symObjAddr: 0x12AC0, symBinAddr: 0x10001675C, symSize: 0xAC }
  - { offsetInCU: 0x11343, offset: 0x11343, size: 0x8, addend: 0x0, symName: __ZNSt3__112basic_stringIcNS_11char_traitsIcEENS_9allocatorIcEEEC2B8ue170006Ev, symObjAddr: 0x12B6C, symBinAddr: 0x100016808, symSize: 0x274 }
  - { offsetInCU: 0x11373, offset: 0x11373, size: 0x8, addend: 0x0, symName: __ZNSt3__117__compressed_pairINS_12basic_stringIcNS_11char_traitsIcEENS_9allocatorIcEEE5__repES5_EC1B8ue170006INS_18__default_init_tagESA_EEOT_OT0_, symObjAddr: 0x12DE0, symBinAddr: 0x100016A7C, symSize: 0x88 }
  - { offsetInCU: 0x113CB, offset: 0x113CB, size: 0x8, addend: 0x0, symName: __ZNSt3__112basic_stringIcNS_11char_traitsIcEENS_9allocatorIcEEE14__default_initB8ue170006Ev, symObjAddr: 0x12E74, symBinAddr: 0x100016B10, symSize: 0x2B4 }
  - { offsetInCU: 0x113F2, offset: 0x113F2, size: 0x8, addend: 0x0, symName: __ZNSt3__117__compressed_pairINS_12basic_stringIcNS_11char_traitsIcEENS_9allocatorIcEEE5__repES5_EC2B8ue170006INS_18__default_init_tagESA_EEOT_OT0_, symObjAddr: 0x13128, symBinAddr: 0x100016DC4, symSize: 0xF4 }
  - { offsetInCU: 0x1144A, offset: 0x1144A, size: 0x8, addend: 0x0, symName: __ZNSt3__122__compressed_pair_elemINS_12basic_stringIcNS_11char_traitsIcEENS_9allocatorIcEEE5__repELi0ELb0EEC2B8ue170006ENS_18__default_init_tagE, symObjAddr: 0x1321C, symBinAddr: 0x100016EB8, symSize: 0x6C }
  - { offsetInCU: 0x1147E, offset: 0x1147E, size: 0x8, addend: 0x0, symName: __ZNSt3__122__compressed_pair_elemINS_9allocatorIcEELi1ELb1EEC2B8ue170006ENS_18__default_init_tagE, symObjAddr: 0x13288, symBinAddr: 0x100016F24, symSize: 0x84 }
  - { offsetInCU: 0x114B2, offset: 0x114B2, size: 0x8, addend: 0x0, symName: __ZNSt3__19allocatorIcEC2B8ue170006Ev, symObjAddr: 0x1330C, symBinAddr: 0x100016FA8, symSize: 0x84 }
  - { offsetInCU: 0x114DC, offset: 0x114DC, size: 0x8, addend: 0x0, symName: __ZNSt3__116__non_trivial_ifILb1ENS_9allocatorIcEEEC2B8ue170006Ev, symObjAddr: 0x13390, symBinAddr: 0x10001702C, symSize: 0x54 }
  - { offsetInCU: 0x11506, offset: 0x11506, size: 0x8, addend: 0x0, symName: __ZNSt3__117__compressed_pairINS_12basic_stringIcNS_11char_traitsIcEENS_9allocatorIcEEE5__repES5_E5firstB8ue170006Ev, symObjAddr: 0x133E4, symBinAddr: 0x100017080, symSize: 0x124 }
  - { offsetInCU: 0x1152C, offset: 0x1152C, size: 0x8, addend: 0x0, symName: __ZNSt3__122__compressed_pair_elemINS_12basic_stringIcNS_11char_traitsIcEENS_9allocatorIcEEE5__repELi0ELb0EE5__getB8ue170006Ev, symObjAddr: 0x13508, symBinAddr: 0x1000171A4, symSize: 0xAC }
  - { offsetInCU: 0x11552, offset: 0x11552, size: 0x8, addend: 0x0, symName: __ZNKSt3__19basic_iosIcNS_11char_traitsIcEEE5widenB8ue170006Ec, symObjAddr: 0x14460, symBinAddr: 0x1000180FC, symSize: 0x47C }
  - { offsetInCU: 0x1162F, offset: 0x1162F, size: 0x8, addend: 0x0, symName: __ZNKSt3__113basic_istreamIcNS_11char_traitsIcEEE6sentrycvbB8ue170006Ev, symObjAddr: 0x148DC, symBinAddr: 0x100018578, symSize: 0xE8 }
  - { offsetInCU: 0x11655, offset: 0x11655, size: 0x8, addend: 0x0, symName: __ZNSt3__112basic_stringIcNS_11char_traitsIcEENS_9allocatorIcEEE5clearB8ue170006Ev, symObjAddr: 0x149C4, symBinAddr: 0x100018660, symSize: 0x398 }
  - { offsetInCU: 0x1167E, offset: 0x1167E, size: 0x8, addend: 0x0, symName: __ZNKSt3__19basic_iosIcNS_11char_traitsIcEEE5rdbufB8ue170006Ev, symObjAddr: 0x14D5C, symBinAddr: 0x1000189F8, symSize: 0x120 }
  - { offsetInCU: 0x116A6, offset: 0x116A6, size: 0x8, addend: 0x0, symName: __ZNSt3__115basic_streambufIcNS_11char_traitsIcEEE6sbumpcB8ue170006Ev, symObjAddr: 0x14E7C, symBinAddr: 0x100018B18, symSize: 0x4D8 }
  - { offsetInCU: 0x116CC, offset: 0x116CC, size: 0x8, addend: 0x0, symName: __ZNSt3__111char_traitsIcE11eq_int_typeB8ue170006Eii, symObjAddr: 0x15354, symBinAddr: 0x100018FF0, symSize: 0x28 }
  - { offsetInCU: 0x116FF, offset: 0x116FF, size: 0x8, addend: 0x0, symName: __ZNSt3__111char_traitsIcE3eofB8ue170006Ev, symObjAddr: 0x1537C, symBinAddr: 0x100019018, symSize: 0x8 }
  - { offsetInCU: 0x11713, offset: 0x11713, size: 0x8, addend: 0x0, symName: __ZNSt3__111char_traitsIcE12to_char_typeB8ue170006Ei, symObjAddr: 0x15384, symBinAddr: 0x100019020, symSize: 0x18 }
  - { offsetInCU: 0x11736, offset: 0x11736, size: 0x8, addend: 0x0, symName: __ZNSt3__111char_traitsIcE2eqEcc, symObjAddr: 0x1539C, symBinAddr: 0x100019038, symSize: 0x28 }
  - { offsetInCU: 0x11767, offset: 0x11767, size: 0x8, addend: 0x0, symName: __ZNKSt3__112basic_stringIcNS_11char_traitsIcEENS_9allocatorIcEEE4sizeB8ue170006Ev, symObjAddr: 0x153C4, symBinAddr: 0x100019060, symSize: 0x98 }
  - { offsetInCU: 0x1178D, offset: 0x1178D, size: 0x8, addend: 0x0, symName: __ZNKSt3__112basic_stringIcNS_11char_traitsIcEENS_9allocatorIcEEE8max_sizeB8ue170006Ev, symObjAddr: 0x1545C, symBinAddr: 0x1000190F8, symSize: 0x1B8 }
  - { offsetInCU: 0x117DF, offset: 0x117DF, size: 0x8, addend: 0x0, symName: __ZNSt3__18ios_base18__setstate_nothrowB8ue170006Ej, symObjAddr: 0x15614, symBinAddr: 0x1000192B0, symSize: 0x320 }
  - { offsetInCU: 0x11814, offset: 0x11814, size: 0x8, addend: 0x0, symName: __ZNKSt3__19basic_iosIcNS_11char_traitsIcEEE10exceptionsB8ue170006Ev, symObjAddr: 0x15934, symBinAddr: 0x1000195D0, symSize: 0x120 }
  - { offsetInCU: 0x1183A, offset: 0x1183A, size: 0x8, addend: 0x0, symName: __ZNSt3__19basic_iosIcNS_11char_traitsIcEEE8setstateB8ue170006Ej, symObjAddr: 0x15A54, symBinAddr: 0x1000196F0, symSize: 0x128 }
  - { offsetInCU: 0x1186F, offset: 0x1186F, size: 0x8, addend: 0x0, symName: __ZNKSt3__112basic_stringIcNS_11char_traitsIcEENS_9allocatorIcEEE9__is_longB8ue170006Ev, symObjAddr: 0x15B7C, symBinAddr: 0x100019818, symSize: 0x1FC }
  - { offsetInCU: 0x11895, offset: 0x11895, size: 0x8, addend: 0x0, symName: __ZNSt3__111char_traitsIcE6assignB8ue170006ERcRKc, symObjAddr: 0x15D78, symBinAddr: 0x100019A14, symSize: 0xF4 }
  - { offsetInCU: 0x118C6, offset: 0x118C6, size: 0x8, addend: 0x0, symName: __ZNSt3__112basic_stringIcNS_11char_traitsIcEENS_9allocatorIcEEE18__get_long_pointerB8ue170006Ev, symObjAddr: 0x15E6C, symBinAddr: 0x100019B08, symSize: 0x208 }
  - { offsetInCU: 0x118EC, offset: 0x118EC, size: 0x8, addend: 0x0, symName: __ZNSt3__112basic_stringIcNS_11char_traitsIcEENS_9allocatorIcEEE15__set_long_sizeB8ue170006Em, symObjAddr: 0x16074, symBinAddr: 0x100019D10, symSize: 0x220 }
  - { offsetInCU: 0x11921, offset: 0x11921, size: 0x8, addend: 0x0, symName: __ZNSt3__112basic_stringIcNS_11char_traitsIcEENS_9allocatorIcEEE19__get_short_pointerB8ue170006Ev, symObjAddr: 0x16294, symBinAddr: 0x100019F30, symSize: 0x1CC }
  - { offsetInCU: 0x11947, offset: 0x11947, size: 0x8, addend: 0x0, symName: __ZNSt3__112basic_stringIcNS_11char_traitsIcEENS_9allocatorIcEEE16__set_short_sizeB8ue170006Em, symObjAddr: 0x16460, symBinAddr: 0x10001A0FC, symSize: 0x394 }
  - { offsetInCU: 0x1197C, offset: 0x1197C, size: 0x8, addend: 0x0, symName: __ZNKSt3__117__compressed_pairINS_12basic_stringIcNS_11char_traitsIcEENS_9allocatorIcEEE5__repES5_E5firstB8ue170006Ev, symObjAddr: 0x167F4, symBinAddr: 0x10001A490, symSize: 0x124 }
  - { offsetInCU: 0x119A2, offset: 0x119A2, size: 0x8, addend: 0x0, symName: __ZNKSt3__122__compressed_pair_elemINS_12basic_stringIcNS_11char_traitsIcEENS_9allocatorIcEEE5__repELi0ELb0EE5__getB8ue170006Ev, symObjAddr: 0x16918, symBinAddr: 0x10001A5B4, symSize: 0xAC }
  - { offsetInCU: 0x119C8, offset: 0x119C8, size: 0x8, addend: 0x0, symName: __ZNSt3__114pointer_traitsIPcE10pointer_toB8ue170006ERc, symObjAddr: 0x169C4, symBinAddr: 0x10001A660, symSize: 0x14 }
  - { offsetInCU: 0x119EB, offset: 0x119EB, size: 0x8, addend: 0x0, symName: __ZNKSt3__18ios_base5rdbufB8ue170006Ev, symObjAddr: 0x169D8, symBinAddr: 0x10001A674, symSize: 0x138 }
  - { offsetInCU: 0x11A11, offset: 0x11A11, size: 0x8, addend: 0x0, symName: __ZNSt3__111char_traitsIcE11to_int_typeB8ue170006Ec, symObjAddr: 0x16B10, symBinAddr: 0x10001A7AC, symSize: 0x14 }
  - { offsetInCU: 0x11A35, offset: 0x11A35, size: 0x8, addend: 0x0, symName: __ZNKSt3__112basic_stringIcNS_11char_traitsIcEENS_9allocatorIcEEE15__get_long_sizeB8ue170006Ev, symObjAddr: 0x16B24, symBinAddr: 0x10001A7C0, symSize: 0x210 }
  - { offsetInCU: 0x11A5B, offset: 0x11A5B, size: 0x8, addend: 0x0, symName: __ZNKSt3__112basic_stringIcNS_11char_traitsIcEENS_9allocatorIcEEE16__get_short_sizeB8ue170006Ev, symObjAddr: 0x16D34, symBinAddr: 0x10001A9D0, symSize: 0x1F8 }
  - { offsetInCU: 0x11A8B, offset: 0x11A8B, size: 0x8, addend: 0x0, symName: __ZNSt3__116allocator_traitsINS_9allocatorIcEEE8max_sizeB8ue170006IS2_vEEmRKS2_, symObjAddr: 0x16F2C, symBinAddr: 0x10001ABC8, symSize: 0x24 }
  - { offsetInCU: 0x11AB9, offset: 0x11AB9, size: 0x8, addend: 0x0, symName: __ZNKSt3__112basic_stringIcNS_11char_traitsIcEENS_9allocatorIcEEE7__allocB8ue170006Ev, symObjAddr: 0x16F50, symBinAddr: 0x10001ABEC, symSize: 0xDC }
  - { offsetInCU: 0x11ADF, offset: 0x11ADF, size: 0x8, addend: 0x0, symName: __ZNSt3__114numeric_limitsImE3maxB8ue170006Ev, symObjAddr: 0x1702C, symBinAddr: 0x10001ACC8, symSize: 0x14 }
  - { offsetInCU: 0x11AF3, offset: 0x11AF3, size: 0x8, addend: 0x0, symName: __ZNKSt3__19allocatorIcE8max_sizeB8ue170006Ev, symObjAddr: 0x17040, symBinAddr: 0x10001ACDC, symSize: 0x4C }
  - { offsetInCU: 0x11B19, offset: 0x11B19, size: 0x8, addend: 0x0, symName: __ZNKSt3__117__compressed_pairINS_12basic_stringIcNS_11char_traitsIcEENS_9allocatorIcEEE5__repES5_E6secondB8ue170006Ev, symObjAddr: 0x1708C, symBinAddr: 0x10001AD28, symSize: 0x108 }
  - { offsetInCU: 0x11B3F, offset: 0x11B3F, size: 0x8, addend: 0x0, symName: __ZNKSt3__122__compressed_pair_elemINS_9allocatorIcEELi1ELb1EE5__getB8ue170006Ev, symObjAddr: 0x17194, symBinAddr: 0x10001AE30, symSize: 0x74 }
  - { offsetInCU: 0x11B65, offset: 0x11B65, size: 0x8, addend: 0x0, symName: __ZNSt3__123__libcpp_numeric_limitsImLb1EE3maxB8ue170006Ev, symObjAddr: 0x17208, symBinAddr: 0x10001AEA4, symSize: 0x8 }
  - { offsetInCU: 0x11B79, offset: 0x11B79, size: 0x8, addend: 0x0, symName: __ZNKSt3__18ios_base10exceptionsB8ue170006Ev, symObjAddr: 0x17210, symBinAddr: 0x10001AEAC, symSize: 0x160 }
  - { offsetInCU: 0x11BA1, offset: 0x11BA1, size: 0x8, addend: 0x0, symName: __ZNSt3__18ios_base8setstateB8ue170006Ej, symObjAddr: 0x17370, symBinAddr: 0x10001B00C, symSize: 0x1E0 }
  - { offsetInCU: 0x11C00, offset: 0x11C00, size: 0x8, addend: 0x0, symName: __ZNKSt3__15ctypeIcE5widenB8ue170006Ec, symObjAddr: 0x176D8, symBinAddr: 0x10001B374, symSize: 0x18C }
  - { offsetInCU: 0x11C35, offset: 0x11C35, size: 0x8, addend: 0x0, symName: __ZNKSt3__19basic_iosIcNS_11char_traitsIcEEE4failB8ue170006Ev, symObjAddr: 0x17864, symBinAddr: 0x10001B500, symSize: 0x124 }
  - { offsetInCU: 0x11C5B, offset: 0x11C5B, size: 0x8, addend: 0x0, symName: __ZNKSt3__18ios_base4failB8ue170006Ev, symObjAddr: 0x17988, symBinAddr: 0x10001B624, symSize: 0x170 }
  - { offsetInCU: 0x11C83, offset: 0x11C83, size: 0x8, addend: 0x0, symName: __ZNSt3__112basic_stringIcNS_11char_traitsIcEENS_9allocatorIcEEE13__get_pointerB8ue170006Ev, symObjAddr: 0x17AF8, symBinAddr: 0x10001B794, symSize: 0x98 }
  - { offsetInCU: 0x11CA9, offset: 0x11CA9, size: 0x8, addend: 0x0, symName: __ZNSt3__16vectorI5PointNS_9allocatorIS1_EEEC2Em, symObjAddr: 0x17B90, symBinAddr: 0x10001B82C, symSize: 0x51C }
  - { offsetInCU: 0x11D04, offset: 0x11D04, size: 0x8, addend: 0x0, symName: __ZNSt3__117__compressed_pairIP5PointNS_9allocatorIS1_EEEC1B8ue170006IDnNS_18__default_init_tagEEEOT_OT0_, symObjAddr: 0x180AC, symBinAddr: 0x10001BD48, symSize: 0x88 }
  - { offsetInCU: 0x11D5C, offset: 0x11D5C, size: 0x8, addend: 0x0, symName: __ZNSt3__16vectorI5PointNS_9allocatorIS1_EEE16__destroy_vectorC1B8ue170006ERS4_, symObjAddr: 0x183F0, symBinAddr: 0x10001C08C, symSize: 0x80 }
  - { offsetInCU: 0x11D95, offset: 0x11D95, size: 0x8, addend: 0x0, symName: __ZNSt3__16vectorI5PointNS_9allocatorIS1_EEE11__vallocateB8ue170006Em, symObjAddr: 0x18470, symBinAddr: 0x10001C10C, symSize: 0x5E8 }
  - { offsetInCU: 0x11DDF, offset: 0x11DDF, size: 0x8, addend: 0x0, symName: __ZNSt3__16vectorI5PointNS_9allocatorIS1_EEE18__construct_at_endEm, symObjAddr: 0x18A58, symBinAddr: 0x10001C6F4, symSize: 0x5A0 }
  - { offsetInCU: 0x11E59, offset: 0x11E59, size: 0x8, addend: 0x0, symName: __ZNSt3__128__exception_guard_exceptionsINS_6vectorI5PointNS_9allocatorIS2_EEE16__destroy_vectorEE10__completeB8ue170006Ev, symObjAddr: 0x18FF8, symBinAddr: 0x10001CC94, symSize: 0xD8 }
  - { offsetInCU: 0x11E7F, offset: 0x11E7F, size: 0x8, addend: 0x0, symName: __ZNSt3__128__exception_guard_exceptionsINS_6vectorI5PointNS_9allocatorIS2_EEE16__destroy_vectorEED1B8ue170006Ev, symObjAddr: 0x190D0, symBinAddr: 0x10001CD6C, symSize: 0x78 }
  - { offsetInCU: 0x11EA9, offset: 0x11EA9, size: 0x8, addend: 0x0, symName: __ZNSt3__117__compressed_pairIP5PointNS_9allocatorIS1_EEEC2B8ue170006IDnNS_18__default_init_tagEEEOT_OT0_, symObjAddr: 0x19148, symBinAddr: 0x10001CDE4, symSize: 0x140 }
  - { offsetInCU: 0x11F01, offset: 0x11F01, size: 0x8, addend: 0x0, symName: __ZNSt3__122__compressed_pair_elemIP5PointLi0ELb0EEC2B8ue170006IDnvEEOT_, symObjAddr: 0x19288, symBinAddr: 0x10001CF24, symSize: 0xBC }
  - { offsetInCU: 0x11F43, offset: 0x11F43, size: 0x8, addend: 0x0, symName: __ZNSt3__122__compressed_pair_elemINS_9allocatorI5PointEELi1ELb1EEC2B8ue170006ENS_18__default_init_tagE, symObjAddr: 0x19344, symBinAddr: 0x10001CFE0, symSize: 0x84 }
  - { offsetInCU: 0x11F77, offset: 0x11F77, size: 0x8, addend: 0x0, symName: __ZNSt3__19allocatorI5PointEC2B8ue170006Ev, symObjAddr: 0x193C8, symBinAddr: 0x10001D064, symSize: 0x84 }
  - { offsetInCU: 0x11FA1, offset: 0x11FA1, size: 0x8, addend: 0x0, symName: __ZNSt3__116__non_trivial_ifILb1ENS_9allocatorI5PointEEEC2B8ue170006Ev, symObjAddr: 0x1944C, symBinAddr: 0x10001D0E8, symSize: 0x54 }
  - { offsetInCU: 0x11FCB, offset: 0x11FCB, size: 0x8, addend: 0x0, symName: __ZNSt3__128__exception_guard_exceptionsINS_6vectorI5PointNS_9allocatorIS2_EEE16__destroy_vectorEEC1B8ue170006ES6_, symObjAddr: 0x194A0, symBinAddr: 0x10001D13C, symSize: 0x28C }
  - { offsetInCU: 0x12008, offset: 0x12008, size: 0x8, addend: 0x0, symName: __ZNSt3__128__exception_guard_exceptionsINS_6vectorI5PointNS_9allocatorIS2_EEE16__destroy_vectorEEC2B8ue170006ES6_, symObjAddr: 0x1972C, symBinAddr: 0x10001D3C8, symSize: 0x2BC }
  - { offsetInCU: 0x12045, offset: 0x12045, size: 0x8, addend: 0x0, symName: __ZNSt3__16vectorI5PointNS_9allocatorIS1_EEE16__destroy_vectorC2B8ue170006ERS4_, symObjAddr: 0x199E8, symBinAddr: 0x10001D684, symSize: 0x108 }
  - { offsetInCU: 0x1207E, offset: 0x1207E, size: 0x8, addend: 0x0, symName: __ZNKSt3__16vectorI5PointNS_9allocatorIS1_EEE8max_sizeEv, symObjAddr: 0x19AF0, symBinAddr: 0x10001D78C, symSize: 0x3B8 }
  - { offsetInCU: 0x120A7, offset: 0x120A7, size: 0x8, addend: 0x0, symName: __ZNKSt3__16vectorI5PointNS_9allocatorIS1_EEE20__throw_length_errorB8ue170006Ev, symObjAddr: 0x19EA8, symBinAddr: 0x10001DB44, symSize: 0x80 }
  - { offsetInCU: 0x120CD, offset: 0x120CD, size: 0x8, addend: 0x0, symName: __ZNSt3__16vectorI5PointNS_9allocatorIS1_EEE7__allocB8ue170006Ev, symObjAddr: 0x1A1B4, symBinAddr: 0x10001DE50, symSize: 0xE4 }
  - { offsetInCU: 0x120F3, offset: 0x120F3, size: 0x8, addend: 0x0, symName: __ZNSt3__16vectorI5PointNS_9allocatorIS1_EEE9__end_capB8ue170006Ev, symObjAddr: 0x1A298, symBinAddr: 0x10001DF34, symSize: 0x100 }
  - { offsetInCU: 0x12119, offset: 0x12119, size: 0x8, addend: 0x0, symName: __ZNKSt3__16vectorI5PointNS_9allocatorIS1_EEE14__annotate_newB8ue170006Em, symObjAddr: 0x1A398, symBinAddr: 0x10001E034, symSize: 0x360 }
  - { offsetInCU: 0x12158, offset: 0x12158, size: 0x8, addend: 0x0, symName: __ZNSt3__116allocator_traitsINS_9allocatorI5PointEEE8max_sizeB8ue170006IS3_vEEmRKS3_, symObjAddr: 0x1A7FC, symBinAddr: 0x10001E498, symSize: 0x24 }
  - { offsetInCU: 0x12186, offset: 0x12186, size: 0x8, addend: 0x0, symName: __ZNKSt3__16vectorI5PointNS_9allocatorIS1_EEE7__allocB8ue170006Ev, symObjAddr: 0x1A820, symBinAddr: 0x10001E4BC, symSize: 0xE4 }
  - { offsetInCU: 0x121AC, offset: 0x121AC, size: 0x8, addend: 0x0, symName: __ZNSt3__114numeric_limitsIlE3maxB8ue170006Ev, symObjAddr: 0x1A904, symBinAddr: 0x10001E5A0, symSize: 0x14 }
  - { offsetInCU: 0x121CA, offset: 0x121CA, size: 0x8, addend: 0x0, symName: __ZNKSt3__16__lessIvvEclB8ue170006ImmEEbRKT_RKT0_, symObjAddr: 0x1ABD8, symBinAddr: 0x10001E874, symSize: 0xEC }
  - { offsetInCU: 0x1221E, offset: 0x1221E, size: 0x8, addend: 0x0, symName: __ZNKSt3__19allocatorI5PointE8max_sizeB8ue170006Ev, symObjAddr: 0x1ACC4, symBinAddr: 0x10001E960, symSize: 0x4C }
  - { offsetInCU: 0x12244, offset: 0x12244, size: 0x8, addend: 0x0, symName: __ZNKSt3__117__compressed_pairIP5PointNS_9allocatorIS1_EEE6secondB8ue170006Ev, symObjAddr: 0x1AD10, symBinAddr: 0x10001E9AC, symSize: 0x108 }
  - { offsetInCU: 0x1226A, offset: 0x1226A, size: 0x8, addend: 0x0, symName: __ZNKSt3__122__compressed_pair_elemINS_9allocatorI5PointEELi1ELb1EE5__getB8ue170006Ev, symObjAddr: 0x1AE18, symBinAddr: 0x10001EAB4, symSize: 0x74 }
  - { offsetInCU: 0x12290, offset: 0x12290, size: 0x8, addend: 0x0, symName: __ZNSt3__123__libcpp_numeric_limitsIlLb1EE3maxB8ue170006Ev, symObjAddr: 0x1AE8C, symBinAddr: 0x10001EB28, symSize: 0x8 }
  - { offsetInCU: 0x122A4, offset: 0x122A4, size: 0x8, addend: 0x0, symName: __ZNSt12length_errorC1B8ue170006EPKc, symObjAddr: 0x1AF48, symBinAddr: 0x10001EBE4, symSize: 0x80 }
  - { offsetInCU: 0x122DC, offset: 0x122DC, size: 0x8, addend: 0x0, symName: __ZNSt12length_errorC2B8ue170006EPKc, symObjAddr: 0x1AFC8, symBinAddr: 0x10001EC64, symSize: 0x128 }
  - { offsetInCU: 0x12314, offset: 0x12314, size: 0x8, addend: 0x0, symName: __ZNSt3__19allocatorI5PointE8allocateB8ue170006Em, symObjAddr: 0x1B0F0, symBinAddr: 0x10001ED8C, symSize: 0xCC }
  - { offsetInCU: 0x12348, offset: 0x12348, size: 0x8, addend: 0x0, symName: __ZNSt3__117__compressed_pairIP5PointNS_9allocatorIS1_EEE6secondB8ue170006Ev, symObjAddr: 0x1B348, symBinAddr: 0x10001EFE4, symSize: 0x108 }
  - { offsetInCU: 0x1236E, offset: 0x1236E, size: 0x8, addend: 0x0, symName: __ZNSt3__122__compressed_pair_elemINS_9allocatorI5PointEELi1ELb1EE5__getB8ue170006Ev, symObjAddr: 0x1B450, symBinAddr: 0x10001F0EC, symSize: 0x74 }
  - { offsetInCU: 0x12394, offset: 0x12394, size: 0x8, addend: 0x0, symName: __ZNSt3__117__compressed_pairIP5PointNS_9allocatorIS1_EEE5firstB8ue170006Ev, symObjAddr: 0x1B4C4, symBinAddr: 0x10001F160, symSize: 0x124 }
  - { offsetInCU: 0x123BA, offset: 0x123BA, size: 0x8, addend: 0x0, symName: __ZNSt3__122__compressed_pair_elemIP5PointLi0ELb0EE5__getB8ue170006Ev, symObjAddr: 0x1B5E8, symBinAddr: 0x10001F284, symSize: 0xAC }
  - { offsetInCU: 0x123E0, offset: 0x123E0, size: 0x8, addend: 0x0, symName: __ZNKSt3__16vectorI5PointNS_9allocatorIS1_EEE31__annotate_contiguous_containerEPKvS6_S6_S6_, symObjAddr: 0x1B694, symBinAddr: 0x10001F330, symSize: 0x9C }
  - { offsetInCU: 0x12442, offset: 0x12442, size: 0x8, addend: 0x0, symName: __ZNKSt3__16vectorI5PointNS_9allocatorIS1_EEE4dataB8ue170006Ev, symObjAddr: 0x1B730, symBinAddr: 0x10001F3CC, symSize: 0xB0 }
  - { offsetInCU: 0x12468, offset: 0x12468, size: 0x8, addend: 0x0, symName: __ZNKSt3__16vectorI5PointNS_9allocatorIS1_EEE8capacityB8ue170006Ev, symObjAddr: 0x1B7E0, symBinAddr: 0x10001F47C, symSize: 0x144 }
  - { offsetInCU: 0x1248E, offset: 0x1248E, size: 0x8, addend: 0x0, symName: __ZNKSt3__16vectorI5PointNS_9allocatorIS1_EEE9__end_capB8ue170006Ev, symObjAddr: 0x1B938, symBinAddr: 0x10001F5D4, symSize: 0x100 }
  - { offsetInCU: 0x124B4, offset: 0x124B4, size: 0x8, addend: 0x0, symName: __ZNKSt3__117__compressed_pairIP5PointNS_9allocatorIS1_EEE5firstB8ue170006Ev, symObjAddr: 0x1BA38, symBinAddr: 0x10001F6D4, symSize: 0x124 }
  - { offsetInCU: 0x124DA, offset: 0x124DA, size: 0x8, addend: 0x0, symName: __ZNKSt3__122__compressed_pair_elemIP5PointLi0ELb0EE5__getB8ue170006Ev, symObjAddr: 0x1BB5C, symBinAddr: 0x10001F7F8, symSize: 0xAC }
  - { offsetInCU: 0x12519, offset: 0x12519, size: 0x8, addend: 0x0, symName: __ZNSt3__16vectorI5PointNS_9allocatorIS1_EEE21_ConstructTransactionC1B8ue170006ERS4_m, symObjAddr: 0x1BC08, symBinAddr: 0x10001F8A4, symSize: 0x88 }
  - { offsetInCU: 0x12561, offset: 0x12561, size: 0x8, addend: 0x0, symName: __ZNSt3__116allocator_traitsINS_9allocatorI5PointEEE9constructB8ue170006IS2_JEvEEvRS3_PT_DpOT0_, symObjAddr: 0x1BC90, symBinAddr: 0x10001F92C, symSize: 0x2C }
  - { offsetInCU: 0x125A3, offset: 0x125A3, size: 0x8, addend: 0x0, symName: __ZNSt3__16vectorI5PointNS_9allocatorIS1_EEE21_ConstructTransactionD1B8ue170006Ev, symObjAddr: 0x1BCBC, symBinAddr: 0x10001F958, symSize: 0x78 }
  - { offsetInCU: 0x125CD, offset: 0x125CD, size: 0x8, addend: 0x0, symName: __ZNSt3__16vectorI5PointNS_9allocatorIS1_EEE21_ConstructTransactionC2B8ue170006ERS4_m, symObjAddr: 0x1BD34, symBinAddr: 0x10001F9D0, symSize: 0x3D8 }
  - { offsetInCU: 0x12615, offset: 0x12615, size: 0x8, addend: 0x0, symName: __ZNKSt3__16vectorI5PointNS_9allocatorIS1_EEE19__annotate_increaseB8ue170006Em, symObjAddr: 0x1C10C, symBinAddr: 0x10001FDA8, symSize: 0x44C }
  - { offsetInCU: 0x1264A, offset: 0x1264A, size: 0x8, addend: 0x0, symName: __ZNKSt3__16vectorI5PointNS_9allocatorIS1_EEE4sizeB8ue170006Ev, symObjAddr: 0x1C558, symBinAddr: 0x1000201F4, symSize: 0xF8 }
  - { offsetInCU: 0x12670, offset: 0x12670, size: 0x8, addend: 0x0, symName: __ZNSt3__19allocatorI5PointE9constructB8ue170006IS1_JEEEvPT_DpOT0_, symObjAddr: 0x1C650, symBinAddr: 0x1000202EC, symSize: 0x80 }
  - { offsetInCU: 0x126B2, offset: 0x126B2, size: 0x8, addend: 0x0, symName: __ZN5PointC1Ev, symObjAddr: 0x1C6D0, symBinAddr: 0x10002036C, symSize: 0x5C }
  - { offsetInCU: 0x126DC, offset: 0x126DC, size: 0x8, addend: 0x0, symName: __ZN5PointC2Ev, symObjAddr: 0x1C72C, symBinAddr: 0x1000203C8, symSize: 0x124 }
  - { offsetInCU: 0x12706, offset: 0x12706, size: 0x8, addend: 0x0, symName: __ZNSt3__16vectorI5PointNS_9allocatorIS1_EEE21_ConstructTransactionD2B8ue170006Ev, symObjAddr: 0x1C850, symBinAddr: 0x1000204EC, symSize: 0x390 }
  - { offsetInCU: 0x12730, offset: 0x12730, size: 0x8, addend: 0x0, symName: __ZNKSt3__16vectorI5PointNS_9allocatorIS1_EEE17__annotate_shrinkB8ue170006Em, symObjAddr: 0x1CBE0, symBinAddr: 0x10002087C, symSize: 0x360 }
  - { offsetInCU: 0x12765, offset: 0x12765, size: 0x8, addend: 0x0, symName: __ZNSt3__128__exception_guard_exceptionsINS_6vectorI5PointNS_9allocatorIS2_EEE16__destroy_vectorEED2B8ue170006Ev, symObjAddr: 0x1CF40, symBinAddr: 0x100020BDC, symSize: 0x17C }
  - { offsetInCU: 0x1278F, offset: 0x1278F, size: 0x8, addend: 0x0, symName: __ZNSt3__16vectorI5PointNS_9allocatorIS1_EEE16__destroy_vectorclB8ue170006Ev, symObjAddr: 0x1D0BC, symBinAddr: 0x100020D58, symSize: 0x43C }
  - { offsetInCU: 0x127B5, offset: 0x127B5, size: 0x8, addend: 0x0, symName: __ZNSt3__16vectorI5PointNS_9allocatorIS1_EEE7__clearB8ue170006Ev, symObjAddr: 0x1D4F8, symBinAddr: 0x100021194, symSize: 0xB0 }
  - { offsetInCU: 0x127DB, offset: 0x127DB, size: 0x8, addend: 0x0, symName: __ZNKSt3__16vectorI5PointNS_9allocatorIS1_EEE17__annotate_deleteB8ue170006Ev, symObjAddr: 0x1D5A8, symBinAddr: 0x100021244, symSize: 0x370 }
  - { offsetInCU: 0x12801, offset: 0x12801, size: 0x8, addend: 0x0, symName: __ZNSt3__116allocator_traitsINS_9allocatorI5PointEEE10deallocateB8ue170006ERS3_PS2_m, symObjAddr: 0x1D918, symBinAddr: 0x1000215B4, symSize: 0x34 }
  - { offsetInCU: 0x12843, offset: 0x12843, size: 0x8, addend: 0x0, symName: __ZNSt3__16vectorI5PointNS_9allocatorIS1_EEE22__base_destruct_at_endB8ue170006EPS1_, symObjAddr: 0x1D94C, symBinAddr: 0x1000215E8, symSize: 0x1FC }
  - { offsetInCU: 0x12887, offset: 0x12887, size: 0x8, addend: 0x0, symName: __ZNSt3__116allocator_traitsINS_9allocatorI5PointEEE7destroyB8ue170006IS2_vEEvRS3_PT_, symObjAddr: 0x1DB48, symBinAddr: 0x1000217E4, symSize: 0x2C }
  - { offsetInCU: 0x128C4, offset: 0x128C4, size: 0x8, addend: 0x0, symName: __ZNSt3__19allocatorI5PointE7destroyB8ue170006EPS1_, symObjAddr: 0x1DB74, symBinAddr: 0x100021810, symSize: 0x4C }
  - { offsetInCU: 0x128F8, offset: 0x128F8, size: 0x8, addend: 0x0, symName: __ZNSt3__19allocatorI5PointE10deallocateB8ue170006EPS1_m, symObjAddr: 0x1DBC0, symBinAddr: 0x10002185C, symSize: 0x78 }
  - { offsetInCU: 0x1293A, offset: 0x1293A, size: 0x8, addend: 0x0, symName: __ZNSt3__16vectorI5PointNS_9allocatorIS1_EEED2B8ue170006Ev, symObjAddr: 0x1DD40, symBinAddr: 0x1000219DC, symSize: 0x294 }
  - { offsetInCU: 0x12965, offset: 0x12965, size: 0x8, addend: 0x0, symName: __ZNSt3__16vectorINS0_I5PointNS_9allocatorIS1_EEEENS2_IS4_EEE8__appendEmRKS4_, symObjAddr: 0x1DFD4, symBinAddr: 0x100021C70, symSize: 0x57C }
  - { offsetInCU: 0x129D7, offset: 0x129D7, size: 0x8, addend: 0x0, symName: __ZNSt3__16vectorINS0_I5PointNS_9allocatorIS1_EEEENS2_IS4_EEE17__destruct_at_endB8ue170006EPS4_, symObjAddr: 0x1E550, symBinAddr: 0x1000221EC, symSize: 0x90 }
  - { offsetInCU: 0x12A1B, offset: 0x12A1B, size: 0x8, addend: 0x0, symName: __ZNSt3__16vectorINS0_I5PointNS_9allocatorIS1_EEEENS2_IS4_EEE9__end_capB8ue170006Ev, symObjAddr: 0x1E5E0, symBinAddr: 0x10002227C, symSize: 0x100 }
  - { offsetInCU: 0x12A41, offset: 0x12A41, size: 0x8, addend: 0x0, symName: __ZNSt3__16vectorINS0_I5PointNS_9allocatorIS1_EEEENS2_IS4_EEE18__construct_at_endEmRKS4_, symObjAddr: 0x1E6E0, symBinAddr: 0x10002237C, symSize: 0x5F4 }
  - { offsetInCU: 0x12ACB, offset: 0x12ACB, size: 0x8, addend: 0x0, symName: __ZNSt3__16vectorINS0_I5PointNS_9allocatorIS1_EEEENS2_IS4_EEE7__allocB8ue170006Ev, symObjAddr: 0x1ECD4, symBinAddr: 0x100022970, symSize: 0xE4 }
  - { offsetInCU: 0x12AF1, offset: 0x12AF1, size: 0x8, addend: 0x0, symName: __ZNKSt3__16vectorINS0_I5PointNS_9allocatorIS1_EEEENS2_IS4_EEE11__recommendB8ue170006Em, symObjAddr: 0x1EDB8, symBinAddr: 0x100022A54, symSize: 0x45C }
  - { offsetInCU: 0x12B4D, offset: 0x12B4D, size: 0x8, addend: 0x0, symName: __ZNSt3__114__split_bufferINS_6vectorI5PointNS_9allocatorIS2_EEEERNS3_IS5_EEEC1EmmS7_, symObjAddr: 0x1F214, symBinAddr: 0x100022EB0, symSize: 0x90 }
  - { offsetInCU: 0x12BA3, offset: 0x12BA3, size: 0x8, addend: 0x0, symName: __ZNSt3__114__split_bufferINS_6vectorI5PointNS_9allocatorIS2_EEEERNS3_IS5_EEE18__construct_at_endEmRKS5_, symObjAddr: 0x1F2A4, symBinAddr: 0x100022F40, symSize: 0x5A0 }
  - { offsetInCU: 0x12BFD, offset: 0x12BFD, size: 0x8, addend: 0x0, symName: __ZNSt3__114__split_bufferINS_6vectorI5PointNS_9allocatorIS2_EEEERNS3_IS5_EEED1Ev, symObjAddr: 0x200A0, symBinAddr: 0x100023D3C, symSize: 0x78 }
  - { offsetInCU: 0x12C29, offset: 0x12C29, size: 0x8, addend: 0x0, symName: __ZNSt3__117__compressed_pairIPNS_6vectorI5PointNS_9allocatorIS2_EEEENS3_IS5_EEE5firstB8ue170006Ev, symObjAddr: 0x20118, symBinAddr: 0x100023DB4, symSize: 0x124 }
  - { offsetInCU: 0x12C4F, offset: 0x12C4F, size: 0x8, addend: 0x0, symName: __ZNSt3__122__compressed_pair_elemIPNS_6vectorI5PointNS_9allocatorIS2_EEEELi0ELb0EE5__getB8ue170006Ev, symObjAddr: 0x2023C, symBinAddr: 0x100023ED8, symSize: 0xAC }
  - { offsetInCU: 0x12C8E, offset: 0x12C8E, size: 0x8, addend: 0x0, symName: __ZNSt3__16vectorINS0_I5PointNS_9allocatorIS1_EEEENS2_IS4_EEE21_ConstructTransactionC1B8ue170006ERS6_m, symObjAddr: 0x202E8, symBinAddr: 0x100023F84, symSize: 0x88 }
  - { offsetInCU: 0x12CD6, offset: 0x12CD6, size: 0x8, addend: 0x0, symName: __ZNSt3__116allocator_traitsINS_9allocatorINS_6vectorI5PointNS1_IS3_EEEEEEE9constructB8ue170006IS5_JRKS5_EvEEvRS6_PT_DpOT0_, symObjAddr: 0x20370, symBinAddr: 0x10002400C, symSize: 0x8C }
  - { offsetInCU: 0x12D2D, offset: 0x12D2D, size: 0x8, addend: 0x0, symName: __ZNSt3__16vectorINS0_I5PointNS_9allocatorIS1_EEEENS2_IS4_EEE21_ConstructTransactionD1B8ue170006Ev, symObjAddr: 0x20410, symBinAddr: 0x1000240AC, symSize: 0x78 }
  - { offsetInCU: 0x12D57, offset: 0x12D57, size: 0x8, addend: 0x0, symName: __ZNSt3__16vectorINS0_I5PointNS_9allocatorIS1_EEEENS2_IS4_EEE21_ConstructTransactionC2B8ue170006ERS6_m, symObjAddr: 0x20488, symBinAddr: 0x100024124, symSize: 0x3E0 }
  - { offsetInCU: 0x12D9F, offset: 0x12D9F, size: 0x8, addend: 0x0, symName: __ZNKSt3__16vectorINS0_I5PointNS_9allocatorIS1_EEEENS2_IS4_EEE19__annotate_increaseB8ue170006Em, symObjAddr: 0x20868, symBinAddr: 0x100024504, symSize: 0x46C }
  - { offsetInCU: 0x12DD4, offset: 0x12DD4, size: 0x8, addend: 0x0, symName: __ZNKSt3__16vectorINS0_I5PointNS_9allocatorIS1_EEEENS2_IS4_EEE31__annotate_contiguous_containerEPKvS8_S8_S8_, symObjAddr: 0x20CD4, symBinAddr: 0x100024970, symSize: 0x9C }
  - { offsetInCU: 0x12E36, offset: 0x12E36, size: 0x8, addend: 0x0, symName: __ZNKSt3__16vectorINS0_I5PointNS_9allocatorIS1_EEEENS2_IS4_EEE4dataB8ue170006Ev, symObjAddr: 0x20D70, symBinAddr: 0x100024A0C, symSize: 0xB0 }
  - { offsetInCU: 0x12E5C, offset: 0x12E5C, size: 0x8, addend: 0x0, symName: __ZNKSt3__16vectorINS0_I5PointNS_9allocatorIS1_EEEENS2_IS4_EEE8capacityB8ue170006Ev, symObjAddr: 0x20E20, symBinAddr: 0x100024ABC, symSize: 0x144 }
  - { offsetInCU: 0x12E82, offset: 0x12E82, size: 0x8, addend: 0x0, symName: __ZNKSt3__16vectorINS0_I5PointNS_9allocatorIS1_EEEENS2_IS4_EEE9__end_capB8ue170006Ev, symObjAddr: 0x20F64, symBinAddr: 0x100024C00, symSize: 0x100 }
  - { offsetInCU: 0x12EA8, offset: 0x12EA8, size: 0x8, addend: 0x0, symName: __ZNKSt3__117__compressed_pairIPNS_6vectorI5PointNS_9allocatorIS2_EEEENS3_IS5_EEE5firstB8ue170006Ev, symObjAddr: 0x21064, symBinAddr: 0x100024D00, symSize: 0x124 }
  - { offsetInCU: 0x12ECE, offset: 0x12ECE, size: 0x8, addend: 0x0, symName: __ZNKSt3__122__compressed_pair_elemIPNS_6vectorI5PointNS_9allocatorIS2_EEEELi0ELb0EE5__getB8ue170006Ev, symObjAddr: 0x21188, symBinAddr: 0x100024E24, symSize: 0xAC }
  - { offsetInCU: 0x12EF4, offset: 0x12EF4, size: 0x8, addend: 0x0, symName: __ZNSt3__19allocatorINS_6vectorI5PointNS0_IS2_EEEEE9constructB8ue170006IS4_JRKS4_EEEvPT_DpOT0_, symObjAddr: 0x21234, symBinAddr: 0x100024ED0, symSize: 0xEC }
  - { offsetInCU: 0x12F4A, offset: 0x12F4A, size: 0x8, addend: 0x0, symName: __ZNSt3__16vectorI5PointNS_9allocatorIS1_EEEC1ERKS4_, symObjAddr: 0x21320, symBinAddr: 0x100024FBC, symSize: 0x80 }
  - { offsetInCU: 0x12F85, offset: 0x12F85, size: 0x8, addend: 0x0, symName: __ZNSt3__16vectorI5PointNS_9allocatorIS1_EEEC2ERKS4_, symObjAddr: 0x213A0, symBinAddr: 0x10002503C, symSize: 0x4C0 }
  - { offsetInCU: 0x12FC2, offset: 0x12FC2, size: 0x8, addend: 0x0, symName: __ZNSt3__116allocator_traitsINS_9allocatorI5PointEEE37select_on_container_copy_constructionB8ue170006IS3_vvEES3_RKS3_, symObjAddr: 0x21860, symBinAddr: 0x1000254FC, symSize: 0x10 }
  - { offsetInCU: 0x12FF6, offset: 0x12FF6, size: 0x8, addend: 0x0, symName: __ZNSt3__117__compressed_pairIP5PointNS_9allocatorIS1_EEEC1B8ue170006IDnS4_EEOT_OT0_, symObjAddr: 0x21870, symBinAddr: 0x10002550C, symSize: 0x88 }
  - { offsetInCU: 0x1304E, offset: 0x1304E, size: 0x8, addend: 0x0, symName: __ZNSt3__16vectorI5PointNS_9allocatorIS1_EEE16__init_with_sizeB8ue170006IPS1_S6_EEvT_T0_m, symObjAddr: 0x218F8, symBinAddr: 0x100025594, symSize: 0x3EC }
  - { offsetInCU: 0x130CA, offset: 0x130CA, size: 0x8, addend: 0x0, symName: __ZNSt3__117__compressed_pairIP5PointNS_9allocatorIS1_EEEC2B8ue170006IDnS4_EEOT_OT0_, symObjAddr: 0x21CE4, symBinAddr: 0x100025980, symSize: 0x170 }
  - { offsetInCU: 0x13122, offset: 0x13122, size: 0x8, addend: 0x0, symName: __ZNSt3__122__compressed_pair_elemINS_9allocatorI5PointEELi1ELb1EEC2B8ue170006IS3_vEEOT_, symObjAddr: 0x21E54, symBinAddr: 0x100025AF0, symSize: 0x58 }
  - { offsetInCU: 0x13164, offset: 0x13164, size: 0x8, addend: 0x0, symName: __ZNSt3__16vectorI5PointNS_9allocatorIS1_EEE18__construct_at_endIPS1_S6_EEvT_T0_m, symObjAddr: 0x21EAC, symBinAddr: 0x100025B48, symSize: 0x494 }
  - { offsetInCU: 0x13200, offset: 0x13200, size: 0x8, addend: 0x0, symName: __ZNSt3__14pairIP5PointS2_EC1B8ue170006IS2_S2_LPv0EEEOT_OT0_, symObjAddr: 0x22D08, symBinAddr: 0x1000269A4, symSize: 0x88 }
  - { offsetInCU: 0x1325E, offset: 0x1325E, size: 0x8, addend: 0x0, symName: __ZNSt3__14pairIP5PointS2_EC2B8ue170006IS2_S2_LPv0EEEOT_OT0_, symObjAddr: 0x22D90, symBinAddr: 0x100026A2C, symSize: 0x210 }
  - { offsetInCU: 0x132C6, offset: 0x132C6, size: 0x8, addend: 0x0, symName: __ZNKSt3__114__copy_trivialclB8ue170006I5PointS2_Li0EEENS_4pairIPT_PT0_EES5_S5_S7_, symObjAddr: 0x23CE0, symBinAddr: 0x10002797C, symSize: 0x25C }
  - { offsetInCU: 0x13332, offset: 0x13332, size: 0x8, addend: 0x0, symName: __ZNSt3__14pairIP5PointS2_EC1B8ue170006IRS2_S2_LPv0EEEOT_OT0_, symObjAddr: 0x246EC, symBinAddr: 0x100028388, symSize: 0x88 }
  - { offsetInCU: 0x13390, offset: 0x13390, size: 0x8, addend: 0x0, symName: __ZNSt3__14pairIP5PointS2_EC2B8ue170006IRS2_S2_LPv0EEEOT_OT0_, symObjAddr: 0x24774, symBinAddr: 0x100028410, symSize: 0x210 }
  - { offsetInCU: 0x133EE, offset: 0x133EE, size: 0x8, addend: 0x0, symName: __ZNSt3__118__unwrap_iter_implIP5PointLb1EE8__unwrapB8ue170006ES2_, symObjAddr: 0x24984, symBinAddr: 0x100028620, symSize: 0x24 }
  - { offsetInCU: 0x13411, offset: 0x13411, size: 0x8, addend: 0x0, symName: __ZNSt3__118__unwrap_iter_implIP5PointLb1EE8__rewrapB8ue170006ES2_S2_, symObjAddr: 0x249A8, symBinAddr: 0x100028644, symSize: 0x13C }
  - { offsetInCU: 0x13442, offset: 0x13442, size: 0x8, addend: 0x0, symName: __ZNSt3__16vectorINS0_I5PointNS_9allocatorIS1_EEEENS2_IS4_EEE21_ConstructTransactionD2B8ue170006Ev, symObjAddr: 0x24AE4, symBinAddr: 0x100028780, symSize: 0x390 }
  - { offsetInCU: 0x1346C, offset: 0x1346C, size: 0x8, addend: 0x0, symName: __ZNKSt3__16vectorINS0_I5PointNS_9allocatorIS1_EEEENS2_IS4_EEE17__annotate_shrinkB8ue170006Em, symObjAddr: 0x24E74, symBinAddr: 0x100028B10, symSize: 0x378 }
  - { offsetInCU: 0x134A1, offset: 0x134A1, size: 0x8, addend: 0x0, symName: __ZNSt3__117__compressed_pairIPNS_6vectorI5PointNS_9allocatorIS2_EEEENS3_IS5_EEE6secondB8ue170006Ev, symObjAddr: 0x251EC, symBinAddr: 0x100028E88, symSize: 0x108 }
  - { offsetInCU: 0x134C7, offset: 0x134C7, size: 0x8, addend: 0x0, symName: __ZNSt3__122__compressed_pair_elemINS_9allocatorINS_6vectorI5PointNS1_IS3_EEEEEELi1ELb1EE5__getB8ue170006Ev, symObjAddr: 0x252F4, symBinAddr: 0x100028F90, symSize: 0x74 }
  - { offsetInCU: 0x134ED, offset: 0x134ED, size: 0x8, addend: 0x0, symName: __ZNKSt3__16vectorINS0_I5PointNS_9allocatorIS1_EEEENS2_IS4_EEE8max_sizeEv, symObjAddr: 0x25368, symBinAddr: 0x100029004, symSize: 0x3B8 }
  - { offsetInCU: 0x13516, offset: 0x13516, size: 0x8, addend: 0x0, symName: __ZNKSt3__16vectorINS0_I5PointNS_9allocatorIS1_EEEENS2_IS4_EEE20__throw_length_errorB8ue170006Ev, symObjAddr: 0x25720, symBinAddr: 0x1000293BC, symSize: 0x80 }
  - { offsetInCU: 0x13546, offset: 0x13546, size: 0x8, addend: 0x0, symName: __ZNSt3__116allocator_traitsINS_9allocatorINS_6vectorI5PointNS1_IS3_EEEEEEE8max_sizeB8ue170006IS6_vEEmRKS6_, symObjAddr: 0x258A4, symBinAddr: 0x100029540, symSize: 0x24 }
  - { offsetInCU: 0x13574, offset: 0x13574, size: 0x8, addend: 0x0, symName: __ZNKSt3__16vectorINS0_I5PointNS_9allocatorIS1_EEEENS2_IS4_EEE7__allocB8ue170006Ev, symObjAddr: 0x258C8, symBinAddr: 0x100029564, symSize: 0xE4 }
  - { offsetInCU: 0x1359A, offset: 0x1359A, size: 0x8, addend: 0x0, symName: __ZNKSt3__19allocatorINS_6vectorI5PointNS0_IS2_EEEEE8max_sizeB8ue170006Ev, symObjAddr: 0x259AC, symBinAddr: 0x100029648, symSize: 0x50 }
  - { offsetInCU: 0x135C0, offset: 0x135C0, size: 0x8, addend: 0x0, symName: __ZNKSt3__117__compressed_pairIPNS_6vectorI5PointNS_9allocatorIS2_EEEENS3_IS5_EEE6secondB8ue170006Ev, symObjAddr: 0x259FC, symBinAddr: 0x100029698, symSize: 0x108 }
  - { offsetInCU: 0x135E6, offset: 0x135E6, size: 0x8, addend: 0x0, symName: __ZNKSt3__122__compressed_pair_elemINS_9allocatorINS_6vectorI5PointNS1_IS3_EEEEEELi1ELb1EE5__getB8ue170006Ev, symObjAddr: 0x25B04, symBinAddr: 0x1000297A0, symSize: 0x74 }
  - { offsetInCU: 0x1360C, offset: 0x1360C, size: 0x8, addend: 0x0, symName: __ZNSt3__114__split_bufferINS_6vectorI5PointNS_9allocatorIS2_EEEERNS3_IS5_EEEC2EmmS7_, symObjAddr: 0x25E38, symBinAddr: 0x100029AD4, symSize: 0x7E8 }
  - { offsetInCU: 0x13687, offset: 0x13687, size: 0x8, addend: 0x0, symName: __ZNSt3__117__compressed_pairIPNS_6vectorI5PointNS_9allocatorIS2_EEEERNS3_IS5_EEEC1B8ue170006IDnS8_EEOT_OT0_, symObjAddr: 0x26620, symBinAddr: 0x10002A2BC, symSize: 0x88 }
  - { offsetInCU: 0x136DF, offset: 0x136DF, size: 0x8, addend: 0x0, symName: __ZNSt3__114__split_bufferINS_6vectorI5PointNS_9allocatorIS2_EEEERNS3_IS5_EEE7__allocB8ue170006Ev, symObjAddr: 0x26934, symBinAddr: 0x10002A5D0, symSize: 0xE4 }
  - { offsetInCU: 0x13705, offset: 0x13705, size: 0x8, addend: 0x0, symName: __ZNSt3__114__split_bufferINS_6vectorI5PointNS_9allocatorIS2_EEEERNS3_IS5_EEE9__end_capB8ue170006Ev, symObjAddr: 0x26A18, symBinAddr: 0x10002A6B4, symSize: 0x100 }
  - { offsetInCU: 0x1372B, offset: 0x1372B, size: 0x8, addend: 0x0, symName: __ZNSt3__117__compressed_pairIPNS_6vectorI5PointNS_9allocatorIS2_EEEERNS3_IS5_EEEC2B8ue170006IDnS8_EEOT_OT0_, symObjAddr: 0x26B18, symBinAddr: 0x10002A7B4, symSize: 0x198 }
  - { offsetInCU: 0x13783, offset: 0x13783, size: 0x8, addend: 0x0, symName: __ZNSt3__122__compressed_pair_elemIPNS_6vectorI5PointNS_9allocatorIS2_EEEELi0ELb0EEC2B8ue170006IDnvEEOT_, symObjAddr: 0x26CB0, symBinAddr: 0x10002A94C, symSize: 0xBC }
  - { offsetInCU: 0x137C5, offset: 0x137C5, size: 0x8, addend: 0x0, symName: __ZNSt3__122__compressed_pair_elemIRNS_9allocatorINS_6vectorI5PointNS1_IS3_EEEEEELi1ELb0EEC2B8ue170006IS7_vEEOT_, symObjAddr: 0x26D6C, symBinAddr: 0x10002AA08, symSize: 0xEC }
  - { offsetInCU: 0x13807, offset: 0x13807, size: 0x8, addend: 0x0, symName: __ZNSt3__19allocatorINS_6vectorI5PointNS0_IS2_EEEEE8allocateB8ue170006Em, symObjAddr: 0x26E58, symBinAddr: 0x10002AAF4, symSize: 0xD0 }
  - { offsetInCU: 0x1383B, offset: 0x1383B, size: 0x8, addend: 0x0, symName: __ZNSt3__117__compressed_pairIPNS_6vectorI5PointNS_9allocatorIS2_EEEERNS3_IS5_EEE6secondB8ue170006Ev, symObjAddr: 0x26F28, symBinAddr: 0x10002ABC4, symSize: 0x110 }
  - { offsetInCU: 0x13861, offset: 0x13861, size: 0x8, addend: 0x0, symName: __ZNSt3__122__compressed_pair_elemIRNS_9allocatorINS_6vectorI5PointNS1_IS3_EEEEEELi1ELb0EE5__getB8ue170006Ev, symObjAddr: 0x27038, symBinAddr: 0x10002ACD4, symSize: 0xD8 }
  - { offsetInCU: 0x13887, offset: 0x13887, size: 0x8, addend: 0x0, symName: __ZNSt3__117__compressed_pairIPNS_6vectorI5PointNS_9allocatorIS2_EEEERNS3_IS5_EEE5firstB8ue170006Ev, symObjAddr: 0x27110, symBinAddr: 0x10002ADAC, symSize: 0x124 }
  - { offsetInCU: 0x138B7, offset: 0x138B7, size: 0x8, addend: 0x0, symName: __ZNSt3__114__split_bufferINS_6vectorI5PointNS_9allocatorIS2_EEEERNS3_IS5_EEE21_ConstructTransactionC1B8ue170006EPPS5_m, symObjAddr: 0x27234, symBinAddr: 0x10002AED0, symSize: 0x88 }
  - { offsetInCU: 0x138FD, offset: 0x138FD, size: 0x8, addend: 0x0, symName: __ZNSt3__114__split_bufferINS_6vectorI5PointNS_9allocatorIS2_EEEERNS3_IS5_EEE21_ConstructTransactionD1B8ue170006Ev, symObjAddr: 0x272BC, symBinAddr: 0x10002AF58, symSize: 0x78 }
  - { offsetInCU: 0x13927, offset: 0x13927, size: 0x8, addend: 0x0, symName: __ZNSt3__114__split_bufferINS_6vectorI5PointNS_9allocatorIS2_EEEERNS3_IS5_EEE21_ConstructTransactionC2B8ue170006EPPS5_m, symObjAddr: 0x27334, symBinAddr: 0x10002AFD0, symSize: 0x32C }
  - { offsetInCU: 0x1396D, offset: 0x1396D, size: 0x8, addend: 0x0, symName: __ZNSt3__114__split_bufferINS_6vectorI5PointNS_9allocatorIS2_EEEERNS3_IS5_EEE21_ConstructTransactionD2B8ue170006Ev, symObjAddr: 0x27660, symBinAddr: 0x10002B2FC, symSize: 0x174 }
  - { offsetInCU: 0x13997, offset: 0x13997, size: 0x8, addend: 0x0, symName: __ZNKSt3__16vectorINS0_I5PointNS_9allocatorIS1_EEEENS2_IS4_EEE17__annotate_deleteB8ue170006Ev, symObjAddr: 0x277D4, symBinAddr: 0x10002B470, symSize: 0x388 }
  - { offsetInCU: 0x139BD, offset: 0x139BD, size: 0x8, addend: 0x0, symName: __ZNSt3__116reverse_iteratorIPNS_6vectorI5PointNS_9allocatorIS2_EEEEEC1B8ue170006ES6_, symObjAddr: 0x28134, symBinAddr: 0x10002BDD0, symSize: 0x80 }
  - { offsetInCU: 0x139F5, offset: 0x139F5, size: 0x8, addend: 0x0, symName: __ZNKSt3__116reverse_iteratorIPNS_6vectorI5PointNS_9allocatorIS2_EEEEE4baseB8ue170006Ev, symObjAddr: 0x281B4, symBinAddr: 0x10002BE50, symSize: 0xB0 }
  - { offsetInCU: 0x13A1B, offset: 0x13A1B, size: 0x8, addend: 0x0, symName: __ZNKSt3__16vectorINS0_I5PointNS_9allocatorIS1_EEEENS2_IS4_EEE14__annotate_newB8ue170006Em, symObjAddr: 0x28424, symBinAddr: 0x10002C0C0, symSize: 0x378 }
  - { offsetInCU: 0x13A50, offset: 0x13A50, size: 0x8, addend: 0x0, symName: __ZNSt3__129_AllocatorDestroyRangeReverseINS_9allocatorINS_6vectorI5PointNS1_IS3_EEEEEENS_16reverse_iteratorIPS5_EEEC1B8ue170006ERS6_RS9_SC_, symObjAddr: 0x289D8, symBinAddr: 0x10002C674, symSize: 0x90 }
  - { offsetInCU: 0x13AA7, offset: 0x13AA7, size: 0x8, addend: 0x0, symName: __ZNSt3__116allocator_traitsINS_9allocatorINS_6vectorI5PointNS1_IS3_EEEEEEE9constructB8ue170006IS5_JS5_EvEEvRS6_PT_DpOT0_, symObjAddr: 0x28B04, symBinAddr: 0x10002C7A0, symSize: 0x8C }
  - { offsetInCU: 0x13AFE, offset: 0x13AFE, size: 0x8, addend: 0x0, symName: __ZNKSt3__116reverse_iteratorIPNS_6vectorI5PointNS_9allocatorIS2_EEEEEdeB8ue170006Ev, symObjAddr: 0x28BFC, symBinAddr: 0x10002C898, symSize: 0x184 }
  - { offsetInCU: 0x13B32, offset: 0x13B32, size: 0x8, addend: 0x0, symName: __ZNSt3__116reverse_iteratorIPNS_6vectorI5PointNS_9allocatorIS2_EEEEEppB8ue170006Ev, symObjAddr: 0x28D80, symBinAddr: 0x10002CA1C, symSize: 0x1B0 }
  - { offsetInCU: 0x13B58, offset: 0x13B58, size: 0x8, addend: 0x0, symName: __ZNSt3__128__exception_guard_exceptionsINS_29_AllocatorDestroyRangeReverseINS_9allocatorINS_6vectorI5PointNS2_IS4_EEEEEENS_16reverse_iteratorIPS6_EEEEE10__completeB8ue170006Ev, symObjAddr: 0x28F30, symBinAddr: 0x10002CBCC, symSize: 0xD8 }
  - { offsetInCU: 0x13B7E, offset: 0x13B7E, size: 0x8, addend: 0x0, symName: __ZNSt3__128__exception_guard_exceptionsINS_29_AllocatorDestroyRangeReverseINS_9allocatorINS_6vectorI5PointNS2_IS4_EEEEEENS_16reverse_iteratorIPS6_EEEEED1B8ue170006Ev, symObjAddr: 0x29008, symBinAddr: 0x10002CCA4, symSize: 0x78 }
  - { offsetInCU: 0x13BA8, offset: 0x13BA8, size: 0x8, addend: 0x0, symName: __ZNSt3__128__exception_guard_exceptionsINS_29_AllocatorDestroyRangeReverseINS_9allocatorINS_6vectorI5PointNS2_IS4_EEEEEENS_16reverse_iteratorIPS6_EEEEEC1B8ue170006ESB_, symObjAddr: 0x29080, symBinAddr: 0x10002CD1C, symSize: 0x84 }
  - { offsetInCU: 0x13BE1, offset: 0x13BE1, size: 0x8, addend: 0x0, symName: __ZNSt3__128__exception_guard_exceptionsINS_29_AllocatorDestroyRangeReverseINS_9allocatorINS_6vectorI5PointNS2_IS4_EEEEEENS_16reverse_iteratorIPS6_EEEEEC2B8ue170006ESB_, symObjAddr: 0x29104, symBinAddr: 0x10002CDA0, symSize: 0xF8 }
  - { offsetInCU: 0x13C1A, offset: 0x13C1A, size: 0x8, addend: 0x0, symName: __ZNSt3__129_AllocatorDestroyRangeReverseINS_9allocatorINS_6vectorI5PointNS1_IS3_EEEEEENS_16reverse_iteratorIPS5_EEEC2B8ue170006ERS6_RS9_SC_, symObjAddr: 0x291FC, symBinAddr: 0x10002CE98, symSize: 0x20C }
  - { offsetInCU: 0x13C71, offset: 0x13C71, size: 0x8, addend: 0x0, symName: __ZNSt3__19allocatorINS_6vectorI5PointNS0_IS2_EEEEE9constructB8ue170006IS4_JS4_EEEvPT_DpOT0_, symObjAddr: 0x29408, symBinAddr: 0x10002D0A4, symSize: 0xEC }
  - { offsetInCU: 0x13CC7, offset: 0x13CC7, size: 0x8, addend: 0x0, symName: __ZNSt3__16vectorI5PointNS_9allocatorIS1_EEEC1B8ue170006EOS4_, symObjAddr: 0x294F4, symBinAddr: 0x10002D190, symSize: 0x80 }
  - { offsetInCU: 0x13D02, offset: 0x13D02, size: 0x8, addend: 0x0, symName: __ZNSt3__16vectorI5PointNS_9allocatorIS1_EEEC2B8ue170006EOS4_, symObjAddr: 0x29574, symBinAddr: 0x10002D210, symSize: 0x77C }
  - { offsetInCU: 0x13D44, offset: 0x13D44, size: 0x8, addend: 0x0, symName: __ZNSt3__119__to_address_helperINS_16reverse_iteratorIPNS_6vectorI5PointNS_9allocatorIS3_EEEEEEvE6__callB8ue170006ERKS8_, symObjAddr: 0x29CF0, symBinAddr: 0x10002D98C, symSize: 0x70 }
  - { offsetInCU: 0x13D67, offset: 0x13D67, size: 0x8, addend: 0x0, symName: __ZNKSt3__116reverse_iteratorIPNS_6vectorI5PointNS_9allocatorIS2_EEEEEptB8ue170006Ev, symObjAddr: 0x29D60, symBinAddr: 0x10002D9FC, symSize: 0x6C }
  - { offsetInCU: 0x13D8D, offset: 0x13D8D, size: 0x8, addend: 0x0, symName: __ZNSt3__128__exception_guard_exceptionsINS_29_AllocatorDestroyRangeReverseINS_9allocatorINS_6vectorI5PointNS2_IS4_EEEEEENS_16reverse_iteratorIPS6_EEEEED2B8ue170006Ev, symObjAddr: 0x29DCC, symBinAddr: 0x10002DA68, symSize: 0x17C }
  - { offsetInCU: 0x13DB7, offset: 0x13DB7, size: 0x8, addend: 0x0, symName: __ZNKSt3__129_AllocatorDestroyRangeReverseINS_9allocatorINS_6vectorI5PointNS1_IS3_EEEEEENS_16reverse_iteratorIPS5_EEEclB8ue170006Ev, symObjAddr: 0x29F48, symBinAddr: 0x10002DBE4, symSize: 0x418 }
  - { offsetInCU: 0x13DDE, offset: 0x13DDE, size: 0x8, addend: 0x0, symName: __ZNSt3__116reverse_iteratorINS0_IPNS_6vectorI5PointNS_9allocatorIS2_EEEEEEEC1B8ue170006ES7_, symObjAddr: 0x2A504, symBinAddr: 0x10002E1A0, symSize: 0x29C }
  - { offsetInCU: 0x13E1B, offset: 0x13E1B, size: 0x8, addend: 0x0, symName: __ZNSt3__116allocator_traitsINS_9allocatorINS_6vectorI5PointNS1_IS3_EEEEEEE7destroyB8ue170006IS5_vEEvRS6_PT_, symObjAddr: 0x2AAC4, symBinAddr: 0x10002E760, symSize: 0x2C }
  - { offsetInCU: 0x13E58, offset: 0x13E58, size: 0x8, addend: 0x0, symName: __ZNSt3__116reverse_iteratorINS0_IPNS_6vectorI5PointNS_9allocatorIS2_EEEEEEEppB8ue170006Ev, symObjAddr: 0x2AB5C, symBinAddr: 0x10002E7F8, symSize: 0x100 }
  - { offsetInCU: 0x13E7E, offset: 0x13E7E, size: 0x8, addend: 0x0, symName: __ZNKSt3__116reverse_iteratorINS0_IPNS_6vectorI5PointNS_9allocatorIS2_EEEEEEE4baseB8ue170006Ev, symObjAddr: 0x2AC5C, symBinAddr: 0x10002E8F8, symSize: 0x258 }
  - { offsetInCU: 0x13EA5, offset: 0x13EA5, size: 0x8, addend: 0x0, symName: __ZNSt3__19allocatorINS_6vectorI5PointNS0_IS2_EEEEE7destroyB8ue170006EPS4_, symObjAddr: 0x2AEB4, symBinAddr: 0x10002EB50, symSize: 0x9C }
  - { offsetInCU: 0x13EDE, offset: 0x13EDE, size: 0x8, addend: 0x0, symName: __ZNSt3__119__to_address_helperINS_16reverse_iteratorINS1_IPNS_6vectorI5PointNS_9allocatorIS3_EEEEEEEEvE6__callB8ue170006ERKS9_, symObjAddr: 0x2AF50, symBinAddr: 0x10002EBEC, symSize: 0x70 }
  - { offsetInCU: 0x13F01, offset: 0x13F01, size: 0x8, addend: 0x0, symName: __ZNKSt3__116reverse_iteratorINS0_IPNS_6vectorI5PointNS_9allocatorIS2_EEEEEEEptB8ue170006Ev, symObjAddr: 0x2AFC0, symBinAddr: 0x10002EC5C, symSize: 0x6C }
  - { offsetInCU: 0x13F27, offset: 0x13F27, size: 0x8, addend: 0x0, symName: __ZNKSt3__116reverse_iteratorINS0_IPNS_6vectorI5PointNS_9allocatorIS2_EEEEEEEdeB8ue170006Ev, symObjAddr: 0x2B02C, symBinAddr: 0x10002ECC8, symSize: 0x2C4 }
  - { offsetInCU: 0x13F60, offset: 0x13F60, size: 0x8, addend: 0x0, symName: __ZNSt3__116reverse_iteratorIPNS_6vectorI5PointNS_9allocatorIS2_EEEEEmmB8ue170006Ev, symObjAddr: 0x2B2F0, symBinAddr: 0x10002EF8C, symSize: 0x1B0 }
  - { offsetInCU: 0x13F86, offset: 0x13F86, size: 0x8, addend: 0x0, symName: __ZNSt3__116reverse_iteratorINS0_IPNS_6vectorI5PointNS_9allocatorIS2_EEEEEEEC2B8ue170006ES7_, symObjAddr: 0x2B4A0, symBinAddr: 0x10002F13C, symSize: 0x284 }
  - { offsetInCU: 0x13FC3, offset: 0x13FC3, size: 0x8, addend: 0x0, symName: __ZNSt3__116reverse_iteratorIPNS_6vectorI5PointNS_9allocatorIS2_EEEEEC2B8ue170006ES6_, symObjAddr: 0x2B724, symBinAddr: 0x10002F3C0, symSize: 0x10C }
  - { offsetInCU: 0x13FFB, offset: 0x13FFB, size: 0x8, addend: 0x0, symName: __ZNSt3__114__split_bufferINS_6vectorI5PointNS_9allocatorIS2_EEEERNS3_IS5_EEED2Ev, symObjAddr: 0x2B830, symBinAddr: 0x10002F4CC, symSize: 0x16C }
  - { offsetInCU: 0x14027, offset: 0x14027, size: 0x8, addend: 0x0, symName: __ZNSt3__114__split_bufferINS_6vectorI5PointNS_9allocatorIS2_EEEERNS3_IS5_EEE5clearB8ue170006Ev, symObjAddr: 0x2B99C, symBinAddr: 0x10002F638, symSize: 0xB4 }
  - { offsetInCU: 0x1404D, offset: 0x1404D, size: 0x8, addend: 0x0, symName: __ZNSt3__116allocator_traitsINS_9allocatorINS_6vectorI5PointNS1_IS3_EEEEEEE10deallocateB8ue170006ERS6_PS5_m, symObjAddr: 0x2BA50, symBinAddr: 0x10002F6EC, symSize: 0x34 }
  - { offsetInCU: 0x1408F, offset: 0x1408F, size: 0x8, addend: 0x0, symName: __ZNKSt3__114__split_bufferINS_6vectorI5PointNS_9allocatorIS2_EEEERNS3_IS5_EEE8capacityB8ue170006Ev, symObjAddr: 0x2BA84, symBinAddr: 0x10002F720, symSize: 0x144 }
  - { offsetInCU: 0x140B5, offset: 0x140B5, size: 0x8, addend: 0x0, symName: __ZNSt3__114__split_bufferINS_6vectorI5PointNS_9allocatorIS2_EEEERNS3_IS5_EEE17__destruct_at_endB8ue170006EPS5_, symObjAddr: 0x2BBC8, symBinAddr: 0x10002F864, symSize: 0x74 }
  - { offsetInCU: 0x140E9, offset: 0x140E9, size: 0x8, addend: 0x0, symName: __ZNSt3__114__split_bufferINS_6vectorI5PointNS_9allocatorIS2_EEEERNS3_IS5_EEE17__destruct_at_endB8ue170006EPS5_NS_17integral_constantIbLb0EEE, symObjAddr: 0x2BC3C, symBinAddr: 0x10002F8D8, symSize: 0x224 }
  - { offsetInCU: 0x14129, offset: 0x14129, size: 0x8, addend: 0x0, symName: __ZNSt3__19allocatorINS_6vectorI5PointNS0_IS2_EEEEE10deallocateB8ue170006EPS4_m, symObjAddr: 0x2BE60, symBinAddr: 0x10002FAFC, symSize: 0x7C }
  - { offsetInCU: 0x1416B, offset: 0x1416B, size: 0x8, addend: 0x0, symName: __ZNKSt3__114__split_bufferINS_6vectorI5PointNS_9allocatorIS2_EEEERNS3_IS5_EEE9__end_capB8ue170006Ev, symObjAddr: 0x2BEDC, symBinAddr: 0x10002FB78, symSize: 0x100 }
  - { offsetInCU: 0x14191, offset: 0x14191, size: 0x8, addend: 0x0, symName: __ZNKSt3__117__compressed_pairIPNS_6vectorI5PointNS_9allocatorIS2_EEEERNS3_IS5_EEE5firstB8ue170006Ev, symObjAddr: 0x2BFDC, symBinAddr: 0x10002FC78, symSize: 0x124 }
  - { offsetInCU: 0x141B7, offset: 0x141B7, size: 0x8, addend: 0x0, symName: __ZNSt3__16vectorINS0_I5PointNS_9allocatorIS1_EEEENS2_IS4_EEE22__base_destruct_at_endB8ue170006EPS4_, symObjAddr: 0x2C100, symBinAddr: 0x10002FD9C, symSize: 0x1FC }
  - { offsetInCU: 0x141FB, offset: 0x141FB, size: 0x8, addend: 0x0, symName: __ZNKSt3__18ios_base5widthB8ue170006Ev, symObjAddr: 0x2C2FC, symBinAddr: 0x10002FF98, symSize: 0x138 }
  - { offsetInCU: 0x14223, offset: 0x14223, size: 0x8, addend: 0x0, symName: __ZNSt3__115basic_streambufIcNS_11char_traitsIcEEE5sgetcB8ue170006Ev, symObjAddr: 0x2C434, symBinAddr: 0x1000300D0, symSize: 0x418 }
  - { offsetInCU: 0x14249, offset: 0x14249, size: 0x8, addend: 0x0, symName: __ZNKSt3__15ctypeIcE2isB8ue170006Ejc, symObjAddr: 0x2C84C, symBinAddr: 0x1000304E8, symSize: 0x314 }
  - { offsetInCU: 0x1428D, offset: 0x1428D, size: 0x8, addend: 0x0, symName: __ZNSt3__18ios_base5widthB8ue170006El, symObjAddr: 0x2CB60, symBinAddr: 0x1000307FC, symSize: 0x1F8 }
  - { offsetInCU: 0x142D2, offset: 0x142D2, size: 0x8, addend: 0x0, symName: __Z7isasciii, symObjAddr: 0x2CD58, symBinAddr: 0x1000309F4, symSize: 0x24 }
  - { offsetInCU: 0x142FF, offset: 0x142FF, size: 0x8, addend: 0x0, symName: __ZNSt3__15dequeI10CoordinateNS_9allocatorIS1_EEEC2B8ue170006Ev, symObjAddr: 0x2CD7C, symBinAddr: 0x100030A18, symSize: 0x324 }
  - { offsetInCU: 0x1432A, offset: 0x1432A, size: 0x8, addend: 0x0, symName: __ZNSt3__114__split_bufferIP10CoordinateNS_9allocatorIS2_EEEC1B8ue170006Ev, symObjAddr: 0x2D0A0, symBinAddr: 0x100030D3C, symSize: 0x78 }
  - { offsetInCU: 0x14359, offset: 0x14359, size: 0x8, addend: 0x0, symName: __ZNSt3__117__compressed_pairImNS_9allocatorI10CoordinateEEEC1B8ue170006IiNS_18__default_init_tagEEEOT_OT0_, symObjAddr: 0x2D118, symBinAddr: 0x100030DB4, symSize: 0x88 }
  - { offsetInCU: 0x143B1, offset: 0x143B1, size: 0x8, addend: 0x0, symName: __ZNKSt3__15dequeI10CoordinateNS_9allocatorIS1_EEE14__annotate_newB8ue170006Em, symObjAddr: 0x2D1A0, symBinAddr: 0x100030E3C, symSize: 0x214 }
  - { offsetInCU: 0x143E6, offset: 0x143E6, size: 0x8, addend: 0x0, symName: __ZNSt3__114__split_bufferIP10CoordinateNS_9allocatorIS2_EEEC2B8ue170006Ev, symObjAddr: 0x2D3B4, symBinAddr: 0x100031050, symSize: 0x378 }
  - { offsetInCU: 0x14411, offset: 0x14411, size: 0x8, addend: 0x0, symName: __ZNSt3__117__compressed_pairIPP10CoordinateNS_9allocatorIS2_EEEC1B8ue170006IDnNS_18__default_init_tagEEEOT_OT0_, symObjAddr: 0x2D72C, symBinAddr: 0x1000313C8, symSize: 0x88 }
  - { offsetInCU: 0x14469, offset: 0x14469, size: 0x8, addend: 0x0, symName: __ZNSt3__117__compressed_pairIPP10CoordinateNS_9allocatorIS2_EEEC2B8ue170006IDnNS_18__default_init_tagEEEOT_OT0_, symObjAddr: 0x2D7B4, symBinAddr: 0x100031450, symSize: 0x140 }
  - { offsetInCU: 0x144C1, offset: 0x144C1, size: 0x8, addend: 0x0, symName: __ZNSt3__122__compressed_pair_elemIPP10CoordinateLi0ELb0EEC2B8ue170006IDnvEEOT_, symObjAddr: 0x2D8F4, symBinAddr: 0x100031590, symSize: 0xBC }
  - { offsetInCU: 0x14503, offset: 0x14503, size: 0x8, addend: 0x0, symName: __ZNSt3__122__compressed_pair_elemINS_9allocatorIP10CoordinateEELi1ELb1EEC2B8ue170006ENS_18__default_init_tagE, symObjAddr: 0x2D9B0, symBinAddr: 0x10003164C, symSize: 0x84 }
  - { offsetInCU: 0x14537, offset: 0x14537, size: 0x8, addend: 0x0, symName: __ZNSt3__19allocatorIP10CoordinateEC2B8ue170006Ev, symObjAddr: 0x2DA34, symBinAddr: 0x1000316D0, symSize: 0x84 }
  - { offsetInCU: 0x14561, offset: 0x14561, size: 0x8, addend: 0x0, symName: __ZNSt3__116__non_trivial_ifILb1ENS_9allocatorIP10CoordinateEEEC2B8ue170006Ev, symObjAddr: 0x2DAB8, symBinAddr: 0x100031754, symSize: 0x54 }
  - { offsetInCU: 0x1458B, offset: 0x1458B, size: 0x8, addend: 0x0, symName: __ZNSt3__117__compressed_pairImNS_9allocatorI10CoordinateEEEC2B8ue170006IiNS_18__default_init_tagEEEOT_OT0_, symObjAddr: 0x2DB0C, symBinAddr: 0x1000317A8, symSize: 0x140 }
  - { offsetInCU: 0x145E3, offset: 0x145E3, size: 0x8, addend: 0x0, symName: __ZNSt3__122__compressed_pair_elemImLi0ELb0EEC2B8ue170006IivEEOT_, symObjAddr: 0x2DC4C, symBinAddr: 0x1000318E8, symSize: 0x16C }
  - { offsetInCU: 0x14625, offset: 0x14625, size: 0x8, addend: 0x0, symName: __ZNSt3__122__compressed_pair_elemINS_9allocatorI10CoordinateEELi1ELb1EEC2B8ue170006ENS_18__default_init_tagE, symObjAddr: 0x2DDB8, symBinAddr: 0x100031A54, symSize: 0x84 }
  - { offsetInCU: 0x14659, offset: 0x14659, size: 0x8, addend: 0x0, symName: __ZNSt3__19allocatorI10CoordinateEC2B8ue170006Ev, symObjAddr: 0x2DE3C, symBinAddr: 0x100031AD8, symSize: 0x84 }
  - { offsetInCU: 0x14683, offset: 0x14683, size: 0x8, addend: 0x0, symName: __ZNSt3__116__non_trivial_ifILb1ENS_9allocatorI10CoordinateEEEC2B8ue170006Ev, symObjAddr: 0x2DEC0, symBinAddr: 0x100031B5C, symSize: 0x54 }
  - { offsetInCU: 0x146AD, offset: 0x146AD, size: 0x8, addend: 0x0, symName: __ZNKSt3__15dequeI10CoordinateNS_9allocatorIS1_EEE18__annotate_from_toB8ue170006EmmNS4_22__asan_annotation_typeENS4_23__asan_annotation_placeE, symObjAddr: 0x2DF14, symBinAddr: 0x100031BB0, symSize: 0x167C }
  - { offsetInCU: 0x14869, offset: 0x14869, size: 0x8, addend: 0x0, symName: __ZNKSt3__114__split_bufferIP10CoordinateNS_9allocatorIS2_EEE4sizeB8ue170006Ev, symObjAddr: 0x2F590, symBinAddr: 0x10003322C, symSize: 0xFC }
  - { offsetInCU: 0x1488F, offset: 0x1488F, size: 0x8, addend: 0x0, symName: __ZNKSt3__114__split_bufferIP10CoordinateNS_9allocatorIS2_EEE5beginB8ue170006Ev, symObjAddr: 0x2F68C, symBinAddr: 0x100033328, symSize: 0xB0 }
  - { offsetInCU: 0x148B5, offset: 0x148B5, size: 0x8, addend: 0x0, symName: __ZNKSt3__15dequeI10CoordinateNS_9allocatorIS1_EEE4sizeB8ue170006Ev, symObjAddr: 0x2F73C, symBinAddr: 0x1000333D8, symSize: 0xF8 }
  - { offsetInCU: 0x148DB, offset: 0x148DB, size: 0x8, addend: 0x0, symName: __ZNKSt3__15dequeI10CoordinateNS_9allocatorIS1_EEE44__annotate_double_ended_contiguous_containerB8ue170006EPKvS6_S6_S6_S6_S6_, symObjAddr: 0x2F848, symBinAddr: 0x1000334E4, symSize: 0x78 }
  - { offsetInCU: 0x14943, offset: 0x14943, size: 0x8, addend: 0x0, symName: __ZNKSt3__15dequeI10CoordinateNS_9allocatorIS1_EEE6__sizeB8ue170006Ev, symObjAddr: 0x2F8C0, symBinAddr: 0x10003355C, symSize: 0x100 }
  - { offsetInCU: 0x14969, offset: 0x14969, size: 0x8, addend: 0x0, symName: __ZNKSt3__117__compressed_pairImNS_9allocatorI10CoordinateEEE5firstB8ue170006Ev, symObjAddr: 0x2F9C0, symBinAddr: 0x10003365C, symSize: 0x124 }
  - { offsetInCU: 0x1498F, offset: 0x1498F, size: 0x8, addend: 0x0, symName: __ZNKSt3__122__compressed_pair_elemImLi0ELb0EE5__getB8ue170006Ev, symObjAddr: 0x2FAE4, symBinAddr: 0x100033780, symSize: 0xAC }
  - { offsetInCU: 0x149B5, offset: 0x149B5, size: 0x8, addend: 0x0, symName: __ZNSt3__15dequeI10CoordinateNS_9allocatorIS1_EEED2B8ue170006Ev, symObjAddr: 0x2FB90, symBinAddr: 0x10003382C, symSize: 0x2A0 }
  - { offsetInCU: 0x14A0B, offset: 0x14A0B, size: 0x8, addend: 0x0, symName: __ZNSt3__15dequeI10CoordinateNS_9allocatorIS1_EEE5clearEv, symObjAddr: 0x2FE30, symBinAddr: 0x100033ACC, symSize: 0x720 }
  - { offsetInCU: 0x14A70, offset: 0x14A70, size: 0x8, addend: 0x0, symName: __ZNKSt3__15dequeI10CoordinateNS_9allocatorIS1_EEE17__annotate_deleteB8ue170006Ev, symObjAddr: 0x30550, symBinAddr: 0x1000341EC, symSize: 0x228 }
  - { offsetInCU: 0x14AB3, offset: 0x14AB3, size: 0x8, addend: 0x0, symName: __ZNSt3__114__split_bufferIP10CoordinateNS_9allocatorIS2_EEE5beginB8ue170006Ev, symObjAddr: 0x30778, symBinAddr: 0x100034414, symSize: 0xB0 }
  - { offsetInCU: 0x14AD9, offset: 0x14AD9, size: 0x8, addend: 0x0, symName: __ZNSt3__114__split_bufferIP10CoordinateNS_9allocatorIS2_EEE3endB8ue170006Ev, symObjAddr: 0x30828, symBinAddr: 0x1000344C4, symSize: 0xB0 }
  - { offsetInCU: 0x14AFF, offset: 0x14AFF, size: 0x8, addend: 0x0, symName: __ZNSt3__116allocator_traitsINS_9allocatorI10CoordinateEEE10deallocateB8ue170006ERS3_PS2_m, symObjAddr: 0x308D8, symBinAddr: 0x100034574, symSize: 0x34 }
  - { offsetInCU: 0x14B41, offset: 0x14B41, size: 0x8, addend: 0x0, symName: __ZNSt3__15dequeI10CoordinateNS_9allocatorIS1_EEE7__allocB8ue170006Ev, symObjAddr: 0x3090C, symBinAddr: 0x1000345A8, symSize: 0xE4 }
  - { offsetInCU: 0x14B67, offset: 0x14B67, size: 0x8, addend: 0x0, symName: __ZNSt3__114__split_bufferIP10CoordinateNS_9allocatorIS2_EEED1Ev, symObjAddr: 0x309F0, symBinAddr: 0x10003468C, symSize: 0x78 }
  - { offsetInCU: 0x14B93, offset: 0x14B93, size: 0x8, addend: 0x0, symName: __ZNSt3__15dequeI10CoordinateNS_9allocatorIS1_EEE5beginB8ue170006Ev, symObjAddr: 0x30A68, symBinAddr: 0x100034704, symSize: 0x650 }
  - { offsetInCU: 0x14BCA, offset: 0x14BCA, size: 0x8, addend: 0x0, symName: __ZNSt3__15dequeI10CoordinateNS_9allocatorIS1_EEE3endB8ue170006Ev, symObjAddr: 0x310B8, symBinAddr: 0x100034D54, symSize: 0x614 }
  - { offsetInCU: 0x14C11, offset: 0x14C11, size: 0x8, addend: 0x0, symName: __ZNSt3__116allocator_traitsINS_9allocatorI10CoordinateEEE7destroyB8ue170006IS2_vEEvRS3_PT_, symObjAddr: 0x31790, symBinAddr: 0x10003542C, symSize: 0x2C }
  - { offsetInCU: 0x14C4E, offset: 0x14C4E, size: 0x8, addend: 0x0, symName: __ZNKSt3__116__deque_iteratorI10CoordinatePS1_RS1_PS2_lLl256EEdeB8ue170006Ev, symObjAddr: 0x317BC, symBinAddr: 0x100035458, symSize: 0xF8 }
  - { offsetInCU: 0x14C74, offset: 0x14C74, size: 0x8, addend: 0x0, symName: __ZNSt3__116__deque_iteratorI10CoordinatePS1_RS1_PS2_lLl256EEppB8ue170006Ev, symObjAddr: 0x318B4, symBinAddr: 0x100035550, symSize: 0x46C }
  - { offsetInCU: 0x14C9A, offset: 0x14C9A, size: 0x8, addend: 0x0, symName: __ZNSt3__15dequeI10CoordinateNS_9allocatorIS1_EEE6__sizeB8ue170006Ev, symObjAddr: 0x31D20, symBinAddr: 0x1000359BC, symSize: 0x100 }
  - { offsetInCU: 0x14CC0, offset: 0x14CC0, size: 0x8, addend: 0x0, symName: __ZNSt3__114__split_bufferIP10CoordinateNS_9allocatorIS2_EEE5frontB8ue170006Ev, symObjAddr: 0x31E20, symBinAddr: 0x100035ABC, symSize: 0xF8 }
  - { offsetInCU: 0x14CE6, offset: 0x14CE6, size: 0x8, addend: 0x0, symName: __ZNSt3__114__split_bufferIP10CoordinateNS_9allocatorIS2_EEE9pop_frontB8ue170006Ev, symObjAddr: 0x31F18, symBinAddr: 0x100035BB4, symSize: 0x150 }
  - { offsetInCU: 0x14D0C, offset: 0x14D0C, size: 0x8, addend: 0x0, symName: __ZNKSt3__114__split_bufferIP10CoordinateNS_9allocatorIS2_EEE5emptyB8ue170006Ev, symObjAddr: 0x32068, symBinAddr: 0x100035D04, symSize: 0xFC }
  - { offsetInCU: 0x14D32, offset: 0x14D32, size: 0x8, addend: 0x0, symName: __ZNSt3__116__deque_iteratorI10CoordinatePS1_RS1_PS2_lLl256EEC1B8ue170006ES4_S2_, symObjAddr: 0x32164, symBinAddr: 0x100035E00, symSize: 0x88 }
  - { offsetInCU: 0x14D7A, offset: 0x14D7A, size: 0x8, addend: 0x0, symName: __ZNSt3__116__deque_iteratorI10CoordinatePS1_RS1_PS2_lLl256EEC2B8ue170006ES4_S2_, symObjAddr: 0x321EC, symBinAddr: 0x100035E88, symSize: 0x110 }
  - { offsetInCU: 0x14DC2, offset: 0x14DC2, size: 0x8, addend: 0x0, symName: __ZNSt3__19allocatorI10CoordinateE7destroyB8ue170006EPS1_, symObjAddr: 0x32420, symBinAddr: 0x1000360BC, symSize: 0x4C }
  - { offsetInCU: 0x14DF6, offset: 0x14DF6, size: 0x8, addend: 0x0, symName: __ZNSt3__117__compressed_pairImNS_9allocatorI10CoordinateEEE5firstB8ue170006Ev, symObjAddr: 0x3246C, symBinAddr: 0x100036108, symSize: 0x124 }
  - { offsetInCU: 0x14E1C, offset: 0x14E1C, size: 0x8, addend: 0x0, symName: __ZNSt3__122__compressed_pair_elemImLi0ELb0EE5__getB8ue170006Ev, symObjAddr: 0x32590, symBinAddr: 0x10003622C, symSize: 0xAC }
  - { offsetInCU: 0x14E42, offset: 0x14E42, size: 0x8, addend: 0x0, symName: __ZNSt3__114__split_bufferIP10CoordinateNS_9allocatorIS2_EEE19__destruct_at_beginB8ue170006EPS2_, symObjAddr: 0x3263C, symBinAddr: 0x1000362D8, symSize: 0x74 }
  - { offsetInCU: 0x14E76, offset: 0x14E76, size: 0x8, addend: 0x0, symName: __ZNSt3__114__split_bufferIP10CoordinateNS_9allocatorIS2_EEE19__destruct_at_beginEPS2_NS_17integral_constantIbLb1EEE, symObjAddr: 0x326B0, symBinAddr: 0x10003634C, symSize: 0xC0 }
  - { offsetInCU: 0x14EB6, offset: 0x14EB6, size: 0x8, addend: 0x0, symName: __ZNKSt3__15dequeI10CoordinateNS_9allocatorIS1_EEE22__annotate_whole_blockB8ue170006EmNS4_22__asan_annotation_typeE, symObjAddr: 0x32770, symBinAddr: 0x10003640C, symSize: 0x3C4 }
  - { offsetInCU: 0x14F27, offset: 0x14F27, size: 0x8, addend: 0x0, symName: __ZNKSt3__15dequeI10CoordinateNS_9allocatorIS1_EEE23__annotate_poison_blockB8ue170006EPKvS6_, symObjAddr: 0x32B34, symBinAddr: 0x1000367D0, symSize: 0x8C }
  - { offsetInCU: 0x14F6B, offset: 0x14F6B, size: 0x8, addend: 0x0, symName: __ZNSt3__19allocatorI10CoordinateE10deallocateB8ue170006EPS1_m, symObjAddr: 0x32BC0, symBinAddr: 0x10003685C, symSize: 0x78 }
  - { offsetInCU: 0x14FAD, offset: 0x14FAD, size: 0x8, addend: 0x0, symName: __ZNSt3__117__compressed_pairImNS_9allocatorI10CoordinateEEE6secondB8ue170006Ev, symObjAddr: 0x32C38, symBinAddr: 0x1000368D4, symSize: 0x108 }
  - { offsetInCU: 0x14FD3, offset: 0x14FD3, size: 0x8, addend: 0x0, symName: __ZNSt3__122__compressed_pair_elemINS_9allocatorI10CoordinateEELi1ELb1EE5__getB8ue170006Ev, symObjAddr: 0x32D40, symBinAddr: 0x1000369DC, symSize: 0x74 }
  - { offsetInCU: 0x14FF9, offset: 0x14FF9, size: 0x8, addend: 0x0, symName: __ZNSt3__114__split_bufferIP10CoordinateNS_9allocatorIS2_EEED2Ev, symObjAddr: 0x32DB4, symBinAddr: 0x100036A50, symSize: 0x16C }
  - { offsetInCU: 0x15025, offset: 0x15025, size: 0x8, addend: 0x0, symName: __ZNSt3__114__split_bufferIP10CoordinateNS_9allocatorIS2_EEE5clearB8ue170006Ev, symObjAddr: 0x32F20, symBinAddr: 0x100036BBC, symSize: 0xB4 }
  - { offsetInCU: 0x1504B, offset: 0x1504B, size: 0x8, addend: 0x0, symName: __ZNSt3__116allocator_traitsINS_9allocatorIP10CoordinateEEE10deallocateB8ue170006ERS4_PS3_m, symObjAddr: 0x32FD4, symBinAddr: 0x100036C70, symSize: 0x34 }
  - { offsetInCU: 0x1508D, offset: 0x1508D, size: 0x8, addend: 0x0, symName: __ZNSt3__114__split_bufferIP10CoordinateNS_9allocatorIS2_EEE7__allocB8ue170006Ev, symObjAddr: 0x33008, symBinAddr: 0x100036CA4, symSize: 0xE4 }
  - { offsetInCU: 0x150B3, offset: 0x150B3, size: 0x8, addend: 0x0, symName: __ZNKSt3__114__split_bufferIP10CoordinateNS_9allocatorIS2_EEE8capacityB8ue170006Ev, symObjAddr: 0x330EC, symBinAddr: 0x100036D88, symSize: 0x144 }
  - { offsetInCU: 0x150D9, offset: 0x150D9, size: 0x8, addend: 0x0, symName: __ZNSt3__114__split_bufferIP10CoordinateNS_9allocatorIS2_EEE17__destruct_at_endB8ue170006EPS2_, symObjAddr: 0x33230, symBinAddr: 0x100036ECC, symSize: 0x74 }
  - { offsetInCU: 0x1510D, offset: 0x1510D, size: 0x8, addend: 0x0, symName: __ZNSt3__114__split_bufferIP10CoordinateNS_9allocatorIS2_EEE17__destruct_at_endB8ue170006EPS2_NS_17integral_constantIbLb0EEE, symObjAddr: 0x332A4, symBinAddr: 0x100036F40, symSize: 0x224 }
  - { offsetInCU: 0x1514D, offset: 0x1514D, size: 0x8, addend: 0x0, symName: __ZNSt3__116allocator_traitsINS_9allocatorIP10CoordinateEEE7destroyB8ue170006IS3_vEEvRS4_PT_, symObjAddr: 0x334C8, symBinAddr: 0x100037164, symSize: 0x2C }
  - { offsetInCU: 0x1518A, offset: 0x1518A, size: 0x8, addend: 0x0, symName: __ZNSt3__19allocatorIP10CoordinateE7destroyB8ue170006EPS2_, symObjAddr: 0x33508, symBinAddr: 0x1000371A4, symSize: 0x4C }
  - { offsetInCU: 0x151BE, offset: 0x151BE, size: 0x8, addend: 0x0, symName: __ZNSt3__19allocatorIP10CoordinateE10deallocateB8ue170006EPS2_m, symObjAddr: 0x33554, symBinAddr: 0x1000371F0, symSize: 0x78 }
  - { offsetInCU: 0x15200, offset: 0x15200, size: 0x8, addend: 0x0, symName: __ZNSt3__117__compressed_pairIPP10CoordinateNS_9allocatorIS2_EEE6secondB8ue170006Ev, symObjAddr: 0x335CC, symBinAddr: 0x100037268, symSize: 0x108 }
  - { offsetInCU: 0x15226, offset: 0x15226, size: 0x8, addend: 0x0, symName: __ZNSt3__122__compressed_pair_elemINS_9allocatorIP10CoordinateEELi1ELb1EE5__getB8ue170006Ev, symObjAddr: 0x336D4, symBinAddr: 0x100037370, symSize: 0x74 }
  - { offsetInCU: 0x1524C, offset: 0x1524C, size: 0x8, addend: 0x0, symName: __ZNKSt3__114__split_bufferIP10CoordinateNS_9allocatorIS2_EEE9__end_capB8ue170006Ev, symObjAddr: 0x33748, symBinAddr: 0x1000373E4, symSize: 0x100 }
  - { offsetInCU: 0x15272, offset: 0x15272, size: 0x8, addend: 0x0, symName: __ZNKSt3__117__compressed_pairIPP10CoordinateNS_9allocatorIS2_EEE5firstB8ue170006Ev, symObjAddr: 0x33848, symBinAddr: 0x1000374E4, symSize: 0x124 }
  - { offsetInCU: 0x15298, offset: 0x15298, size: 0x8, addend: 0x0, symName: __ZNKSt3__122__compressed_pair_elemIPP10CoordinateLi0ELb0EE5__getB8ue170006Ev, symObjAddr: 0x3396C, symBinAddr: 0x100037608, symSize: 0xAC }
  - { offsetInCU: 0x152BE, offset: 0x152BE, size: 0x8, addend: 0x0, symName: __ZNKSt3__15dequeI10CoordinateNS_9allocatorIS1_EEE12__back_spareB8ue170006Ev, symObjAddr: 0x33A18, symBinAddr: 0x1000376B4, symSize: 0xD4 }
  - { offsetInCU: 0x152E4, offset: 0x152E4, size: 0x8, addend: 0x0, symName: __ZNSt3__15dequeI10CoordinateNS_9allocatorIS1_EEE19__add_back_capacityEv, symObjAddr: 0x33AEC, symBinAddr: 0x100037788, symSize: 0x13D4 }
  - { offsetInCU: 0x153A4, offset: 0x153A4, size: 0x8, addend: 0x0, symName: __ZNKSt3__15dequeI10CoordinateNS_9allocatorIS1_EEE24__annotate_increase_backB8ue170006Em, symObjAddr: 0x34EC0, symBinAddr: 0x100038B5C, symSize: 0x134 }
  - { offsetInCU: 0x153D9, offset: 0x153D9, size: 0x8, addend: 0x0, symName: __ZNSt3__116allocator_traitsINS_9allocatorI10CoordinateEEE9constructB8ue170006IS2_JRKS2_EvEEvRS3_PT_DpOT0_, symObjAddr: 0x34FF4, symBinAddr: 0x100038C90, symSize: 0x8C }
  - { offsetInCU: 0x15430, offset: 0x15430, size: 0x8, addend: 0x0, symName: __ZNKSt3__15dequeI10CoordinateNS_9allocatorIS1_EEE10__capacityB8ue170006Ev, symObjAddr: 0x35080, symBinAddr: 0x100038D1C, symSize: 0x12C }
  - { offsetInCU: 0x15456, offset: 0x15456, size: 0x8, addend: 0x0, symName: __ZNKSt3__15dequeI10CoordinateNS_9allocatorIS1_EEE13__front_spareB8ue170006Ev, symObjAddr: 0x351AC, symBinAddr: 0x100038E48, symSize: 0xB0 }
  - { offsetInCU: 0x1547C, offset: 0x1547C, size: 0x8, addend: 0x0, symName: __ZNSt3__114__split_bufferIP10CoordinateNS_9allocatorIS2_EEE9push_backB8ue170006ERKS2_, symObjAddr: 0x3525C, symBinAddr: 0x100038EF8, symSize: 0x1138 }
  - { offsetInCU: 0x154FB, offset: 0x154FB, size: 0x8, addend: 0x0, symName: __ZNKSt3__114__split_bufferIP10CoordinateNS_9allocatorIS2_EEE12__back_spareB8ue170006Ev, symObjAddr: 0x36394, symBinAddr: 0x10003A030, symSize: 0x148 }
  - { offsetInCU: 0x15521, offset: 0x15521, size: 0x8, addend: 0x0, symName: __ZNSt3__114__split_bufferIP10CoordinateNS_9allocatorIS2_EEE9push_backEOS2_, symObjAddr: 0x364DC, symBinAddr: 0x10003A178, symSize: 0x1138 }
  - { offsetInCU: 0x155A0, offset: 0x155A0, size: 0x8, addend: 0x0, symName: __ZNSt3__116allocator_traitsINS_9allocatorI10CoordinateEEE8allocateB8ue170006ERS3_m, symObjAddr: 0x37614, symBinAddr: 0x10003B2B0, symSize: 0x2C }
  - { offsetInCU: 0x155D3, offset: 0x155D3, size: 0x8, addend: 0x0, symName: __ZNSt3__114__split_bufferIP10CoordinateNS_9allocatorIS2_EEE10push_frontEOS2_, symObjAddr: 0x37640, symBinAddr: 0x10003B2DC, symSize: 0x1214 }
  - { offsetInCU: 0x15652, offset: 0x15652, size: 0x8, addend: 0x0, symName: __ZNSt3__114__split_bufferIP10CoordinateRNS_9allocatorIS2_EEEC1EmmS5_, symObjAddr: 0x38854, symBinAddr: 0x10003C4F0, symSize: 0x90 }
  - { offsetInCU: 0x156AD, offset: 0x156AD, size: 0x8, addend: 0x0, symName: __ZNSt3__122__allocator_destructorINS_9allocatorI10CoordinateEEEC1B8ue170006ERS3_m, symObjAddr: 0x388E4, symBinAddr: 0x10003C580, symSize: 0x88 }
  - { offsetInCU: 0x15770, offset: 0x15770, size: 0x8, addend: 0x0, symName: __ZNSt3__110unique_ptrIP10CoordinateNS_22__allocator_destructorINS_9allocatorIS1_EEEEEC1B8ue170006ILb1EvEES2_NS_16__dependent_typeINS_27__unique_ptr_deleter_sfinaeIS6_EEXT_EE20__good_rval_ref_typeE, symObjAddr: 0x3896C, symBinAddr: 0x10003C608, symSize: 0x88 }
  - { offsetInCU: 0x157C1, offset: 0x157C1, size: 0x8, addend: 0x0, symName: __ZNSt3__114__split_bufferIP10CoordinateRNS_9allocatorIS2_EEE9push_backEOS2_, symObjAddr: 0x389F4, symBinAddr: 0x10003C690, symSize: 0x1138 }
  - { offsetInCU: 0x15840, offset: 0x15840, size: 0x8, addend: 0x0, symName: __ZNKSt3__110unique_ptrIP10CoordinateNS_22__allocator_destructorINS_9allocatorIS1_EEEEE3getB8ue170006Ev, symObjAddr: 0x39B2C, symBinAddr: 0x10003D7C8, symSize: 0x13C }
  - { offsetInCU: 0x15866, offset: 0x15866, size: 0x8, addend: 0x0, symName: __ZNSt3__110unique_ptrIP10CoordinateNS_22__allocator_destructorINS_9allocatorIS1_EEEEE7releaseB8ue170006Ev, symObjAddr: 0x39C68, symBinAddr: 0x10003D904, symSize: 0x20C }
  - { offsetInCU: 0x1589B, offset: 0x1589B, size: 0x8, addend: 0x0, symName: __ZNSt3__114__split_bufferIP10CoordinateRNS_9allocatorIS2_EEE10push_frontERKS2_, symObjAddr: 0x39E74, symBinAddr: 0x10003DB10, symSize: 0x1214 }
  - { offsetInCU: 0x1591A, offset: 0x1591A, size: 0x8, addend: 0x0, symName: __ZNSt3__114__split_bufferIP10CoordinateNS_9allocatorIS2_EEE9__end_capB8ue170006Ev, symObjAddr: 0x3B248, symBinAddr: 0x10003EEE4, symSize: 0x100 }
  - { offsetInCU: 0x15940, offset: 0x15940, size: 0x8, addend: 0x0, symName: __ZNSt3__114__split_bufferIP10CoordinateRNS_9allocatorIS2_EEE9__end_capB8ue170006Ev, symObjAddr: 0x3B348, symBinAddr: 0x10003EFE4, symSize: 0x100 }
  - { offsetInCU: 0x15966, offset: 0x15966, size: 0x8, addend: 0x0, symName: __ZNSt3__110unique_ptrIP10CoordinateNS_22__allocator_destructorINS_9allocatorIS1_EEEEED1B8ue170006Ev, symObjAddr: 0x3B448, symBinAddr: 0x10003F0E4, symSize: 0x78 }
  - { offsetInCU: 0x15990, offset: 0x15990, size: 0x8, addend: 0x0, symName: __ZNSt3__114__split_bufferIP10CoordinateRNS_9allocatorIS2_EEED1Ev, symObjAddr: 0x3B4C0, symBinAddr: 0x10003F15C, symSize: 0x78 }
  - { offsetInCU: 0x159BC, offset: 0x159BC, size: 0x8, addend: 0x0, symName: __ZNSt3__114__split_bufferIP10CoordinateRNS_9allocatorIS2_EEE18__construct_at_endINS_13move_iteratorIPS2_EEEENS_9enable_ifIXsr31__has_forward_iterator_categoryIT_EE5valueEvE4typeESC_SC_, symObjAddr: 0x3B7EC, symBinAddr: 0x10003F488, symSize: 0x414 }
  - { offsetInCU: 0x15A12, offset: 0x15A12, size: 0x8, addend: 0x0, symName: __ZNSt3__113move_iteratorIPP10CoordinateEC1B8ue170006ES3_, symObjAddr: 0x3BC00, symBinAddr: 0x10003F89C, symSize: 0x80 }
  - { offsetInCU: 0x15A4A, offset: 0x15A4A, size: 0x8, addend: 0x0, symName: __ZNSt3__116allocator_traitsINS_9allocatorIP10CoordinateEEE9constructB8ue170006IS3_JRKS3_EvEEvRS4_PT_DpOT0_, symObjAddr: 0x3BC80, symBinAddr: 0x10003F91C, symSize: 0x8C }
  - { offsetInCU: 0x15AC4, offset: 0x15AC4, size: 0x8, addend: 0x0, symName: __ZNKSt3__114__move_trivialclB8ue170006IP10CoordinateS3_Li0EEENS_4pairIPT_PT0_EES6_S6_S8_, symObjAddr: 0x3CAE8, symBinAddr: 0x100040784, symSize: 0x25C }
  - { offsetInCU: 0x15B35, offset: 0x15B35, size: 0x8, addend: 0x0, symName: __ZNSt3__14pairIPP10CoordinateS3_EC1B8ue170006IRS3_S3_LPv0EEEOT_OT0_, symObjAddr: 0x3D800, symBinAddr: 0x10004149C, symSize: 0x88 }
  - { offsetInCU: 0x15B93, offset: 0x15B93, size: 0x8, addend: 0x0, symName: __ZNSt3__14pairIPP10CoordinateS3_EC2B8ue170006IRS3_S3_LPv0EEEOT_OT0_, symObjAddr: 0x3D888, symBinAddr: 0x100041524, symSize: 0x210 }
  - { offsetInCU: 0x15BF1, offset: 0x15BF1, size: 0x8, addend: 0x0, symName: __ZNSt3__118__unwrap_iter_implIPP10CoordinateLb1EE8__unwrapB8ue170006ES3_, symObjAddr: 0x3DA98, symBinAddr: 0x100041734, symSize: 0x24 }
  - { offsetInCU: 0x15C14, offset: 0x15C14, size: 0x8, addend: 0x0, symName: __ZNSt3__14pairIPP10CoordinateS3_EC1B8ue170006IS3_S3_LPv0EEEOT_OT0_, symObjAddr: 0x3DABC, symBinAddr: 0x100041758, symSize: 0x88 }
  - { offsetInCU: 0x15C72, offset: 0x15C72, size: 0x8, addend: 0x0, symName: __ZNSt3__14pairIPP10CoordinateS3_EC2B8ue170006IS3_S3_LPv0EEEOT_OT0_, symObjAddr: 0x3DB44, symBinAddr: 0x1000417E0, symSize: 0x210 }
  - { offsetInCU: 0x15CD0, offset: 0x15CD0, size: 0x8, addend: 0x0, symName: __ZNSt3__118__unwrap_iter_implIPP10CoordinateLb1EE8__rewrapB8ue170006ES3_S3_, symObjAddr: 0x3DD54, symBinAddr: 0x1000419F0, symSize: 0x13C }
  - { offsetInCU: 0x15D01, offset: 0x15D01, size: 0x8, addend: 0x0, symName: __ZNSt3__114__split_bufferIP10CoordinateRNS_9allocatorIS2_EEE28__construct_at_end_with_sizeINS_13move_iteratorIPS2_EEEEvT_m, symObjAddr: 0x3DE90, symBinAddr: 0x100041B2C, symSize: 0x610 }
  - { offsetInCU: 0x15D71, offset: 0x15D71, size: 0x8, addend: 0x0, symName: __ZNSt3__114__split_bufferIP10CoordinateRNS_9allocatorIS2_EEE21_ConstructTransactionC1B8ue170006EPPS2_m, symObjAddr: 0x3E7F0, symBinAddr: 0x10004248C, symSize: 0x88 }
  - { offsetInCU: 0x15DB7, offset: 0x15DB7, size: 0x8, addend: 0x0, symName: __ZNSt3__116allocator_traitsINS_9allocatorIP10CoordinateEEE9constructB8ue170006IS3_JS3_EvEEvRS4_PT_DpOT0_, symObjAddr: 0x3E878, symBinAddr: 0x100042514, symSize: 0x8C }
  - { offsetInCU: 0x15E0E, offset: 0x15E0E, size: 0x8, addend: 0x0, symName: __ZNSt3__114__split_bufferIP10CoordinateRNS_9allocatorIS2_EEE7__allocB8ue170006Ev, symObjAddr: 0x3E904, symBinAddr: 0x1000425A0, symSize: 0xE4 }
  - { offsetInCU: 0x15E34, offset: 0x15E34, size: 0x8, addend: 0x0, symName: __ZNKSt3__113move_iteratorIPP10CoordinateEdeB8ue170006Ev, symObjAddr: 0x3E9E8, symBinAddr: 0x100042684, symSize: 0xF4 }
  - { offsetInCU: 0x15E5A, offset: 0x15E5A, size: 0x8, addend: 0x0, symName: __ZNSt3__113move_iteratorIPP10CoordinateEppB8ue170006Ev, symObjAddr: 0x3EADC, symBinAddr: 0x100042778, symSize: 0x1A8 }
  - { offsetInCU: 0x15E80, offset: 0x15E80, size: 0x8, addend: 0x0, symName: __ZNSt3__114__split_bufferIP10CoordinateRNS_9allocatorIS2_EEE21_ConstructTransactionD1B8ue170006Ev, symObjAddr: 0x3EC84, symBinAddr: 0x100042920, symSize: 0x78 }
  - { offsetInCU: 0x15EAA, offset: 0x15EAA, size: 0x8, addend: 0x0, symName: __ZNSt3__114__split_bufferIP10CoordinateRNS_9allocatorIS2_EEE21_ConstructTransactionC2B8ue170006EPPS2_m, symObjAddr: 0x3ECFC, symBinAddr: 0x100042998, symSize: 0x324 }
  - { offsetInCU: 0x15EF0, offset: 0x15EF0, size: 0x8, addend: 0x0, symName: __ZNSt3__19allocatorIP10CoordinateE9constructB8ue170006IS2_JS2_EEEvPT_DpOT0_, symObjAddr: 0x3F020, symBinAddr: 0x100042CBC, symSize: 0x168 }
  - { offsetInCU: 0x15F46, offset: 0x15F46, size: 0x8, addend: 0x0, symName: __ZNSt3__117__compressed_pairIPP10CoordinateRNS_9allocatorIS2_EEE6secondB8ue170006Ev, symObjAddr: 0x3F188, symBinAddr: 0x100042E24, symSize: 0x110 }
  - { offsetInCU: 0x15F6C, offset: 0x15F6C, size: 0x8, addend: 0x0, symName: __ZNSt3__122__compressed_pair_elemIRNS_9allocatorIP10CoordinateEELi1ELb0EE5__getB8ue170006Ev, symObjAddr: 0x3F298, symBinAddr: 0x100042F34, symSize: 0xD8 }
  - { offsetInCU: 0x15F92, offset: 0x15F92, size: 0x8, addend: 0x0, symName: __ZNSt3__114__split_bufferIP10CoordinateRNS_9allocatorIS2_EEE21_ConstructTransactionD2B8ue170006Ev, symObjAddr: 0x3F370, symBinAddr: 0x10004300C, symSize: 0x174 }
  - { offsetInCU: 0x15FBC, offset: 0x15FBC, size: 0x8, addend: 0x0, symName: __ZNKSt3__113move_iteratorIPP10CoordinateE4baseB8ue170006Ev, symObjAddr: 0x3F7F4, symBinAddr: 0x100043490, symSize: 0xAC }
  - { offsetInCU: 0x15FE2, offset: 0x15FE2, size: 0x8, addend: 0x0, symName: __ZNSt3__113move_iteratorIPP10CoordinateEC2B8ue170006ES3_, symObjAddr: 0x3F8A0, symBinAddr: 0x10004353C, symSize: 0xC8 }
  - { offsetInCU: 0x1601A, offset: 0x1601A, size: 0x8, addend: 0x0, symName: __ZNSt3__19allocatorIP10CoordinateE9constructB8ue170006IS2_JRKS2_EEEvPT_DpOT0_, symObjAddr: 0x3F968, symBinAddr: 0x100043604, symSize: 0x168 }
  - { offsetInCU: 0x16070, offset: 0x16070, size: 0x8, addend: 0x0, symName: __ZNSt3__19allocatorI10CoordinateE8allocateB8ue170006Em, symObjAddr: 0x3FAD0, symBinAddr: 0x10004376C, symSize: 0xCC }
  - { offsetInCU: 0x160AE, offset: 0x160AE, size: 0x8, addend: 0x0, symName: __ZNSt3__116allocator_traitsINS_9allocatorI10CoordinateEEE8max_sizeB8ue170006IS3_vEEmRKS3_, symObjAddr: 0x3FB9C, symBinAddr: 0x100043838, symSize: 0x24 }
  - { offsetInCU: 0x160DC, offset: 0x160DC, size: 0x8, addend: 0x0, symName: __ZNKSt3__19allocatorI10CoordinateE8max_sizeB8ue170006Ev, symObjAddr: 0x3FBC0, symBinAddr: 0x10004385C, symSize: 0x4C }
  - { offsetInCU: 0x1610C, offset: 0x1610C, size: 0x8, addend: 0x0, symName: __ZNKSt3__123__move_backward_trivialclB8ue170006IP10CoordinateS3_Li0EEENS_4pairIPT_PT0_EES6_S6_S8_, symObjAddr: 0x4094C, symBinAddr: 0x1000445E8, symSize: 0x25C }
  - { offsetInCU: 0x16178, offset: 0x16178, size: 0x8, addend: 0x0, symName: __ZNSt3__14pairIPP10CoordinateS3_EC1B8ue170006IRS3_S6_LPv0EEEOT_OT0_, symObjAddr: 0x41328, symBinAddr: 0x100044FC4, symSize: 0x88 }
  - { offsetInCU: 0x161D6, offset: 0x161D6, size: 0x8, addend: 0x0, symName: __ZNSt3__14pairIPP10CoordinateS3_EC2B8ue170006IRS3_S6_LPv0EEEOT_OT0_, symObjAddr: 0x413B0, symBinAddr: 0x10004504C, symSize: 0x210 }
  - { offsetInCU: 0x16234, offset: 0x16234, size: 0x8, addend: 0x0, symName: __ZNSt3__114__split_bufferIP10CoordinateRNS_9allocatorIS2_EEEC2EmmS5_, symObjAddr: 0x415C0, symBinAddr: 0x10004525C, symSize: 0x7D8 }
  - { offsetInCU: 0x162AF, offset: 0x162AF, size: 0x8, addend: 0x0, symName: __ZNSt3__117__compressed_pairIPP10CoordinateRNS_9allocatorIS2_EEEC1B8ue170006IDnS6_EEOT_OT0_, symObjAddr: 0x41D98, symBinAddr: 0x100045A34, symSize: 0x88 }
  - { offsetInCU: 0x16307, offset: 0x16307, size: 0x8, addend: 0x0, symName: __ZNSt3__117__compressed_pairIPP10CoordinateRNS_9allocatorIS2_EEEC2B8ue170006IDnS6_EEOT_OT0_, symObjAddr: 0x420AC, symBinAddr: 0x100045D48, symSize: 0x198 }
  - { offsetInCU: 0x1635F, offset: 0x1635F, size: 0x8, addend: 0x0, symName: __ZNSt3__122__compressed_pair_elemIRNS_9allocatorIP10CoordinateEELi1ELb0EEC2B8ue170006IS5_vEEOT_, symObjAddr: 0x42244, symBinAddr: 0x100045EE0, symSize: 0xEC }
  - { offsetInCU: 0x163A1, offset: 0x163A1, size: 0x8, addend: 0x0, symName: __ZNSt3__19allocatorIP10CoordinateE8allocateB8ue170006Em, symObjAddr: 0x42330, symBinAddr: 0x100045FCC, symSize: 0xCC }
  - { offsetInCU: 0x163DF, offset: 0x163DF, size: 0x8, addend: 0x0, symName: __ZNSt3__116allocator_traitsINS_9allocatorIP10CoordinateEEE8max_sizeB8ue170006IS4_vEEmRKS4_, symObjAddr: 0x423FC, symBinAddr: 0x100046098, symSize: 0x24 }
  - { offsetInCU: 0x1640D, offset: 0x1640D, size: 0x8, addend: 0x0, symName: __ZNKSt3__19allocatorIP10CoordinateE8max_sizeB8ue170006Ev, symObjAddr: 0x42420, symBinAddr: 0x1000460BC, symSize: 0x4C }
  - { offsetInCU: 0x16433, offset: 0x16433, size: 0x8, addend: 0x0, symName: __ZNSt3__122__allocator_destructorINS_9allocatorI10CoordinateEEEC2B8ue170006ERS3_m, symObjAddr: 0x4246C, symBinAddr: 0x100046108, symSize: 0x134 }
  - { offsetInCU: 0x16479, offset: 0x16479, size: 0x8, addend: 0x0, symName: __ZNSt3__110unique_ptrIP10CoordinateNS_22__allocator_destructorINS_9allocatorIS1_EEEEEC2B8ue170006ILb1EvEES2_NS_16__dependent_typeINS_27__unique_ptr_deleter_sfinaeIS6_EEXT_EE20__good_rval_ref_typeE, symObjAddr: 0x425A0, symBinAddr: 0x10004623C, symSize: 0x2BC }
  - { offsetInCU: 0x164D0, offset: 0x164D0, size: 0x8, addend: 0x0, symName: __ZNSt3__117__compressed_pairIP10CoordinateNS_22__allocator_destructorINS_9allocatorIS1_EEEEEC1B8ue170006IRS2_S6_EEOT_OT0_, symObjAddr: 0x4285C, symBinAddr: 0x1000464F8, symSize: 0x88 }
  - { offsetInCU: 0x16528, offset: 0x16528, size: 0x8, addend: 0x0, symName: __ZNSt3__117__compressed_pairIP10CoordinateNS_22__allocator_destructorINS_9allocatorIS1_EEEEEC2B8ue170006IRS2_S6_EEOT_OT0_, symObjAddr: 0x428E4, symBinAddr: 0x100046580, symSize: 0x1B4 }
  - { offsetInCU: 0x16580, offset: 0x16580, size: 0x8, addend: 0x0, symName: __ZNSt3__122__compressed_pair_elemIP10CoordinateLi0ELb0EEC2B8ue170006IRS2_vEEOT_, symObjAddr: 0x42A98, symBinAddr: 0x100046734, symSize: 0x144 }
  - { offsetInCU: 0x165C2, offset: 0x165C2, size: 0x8, addend: 0x0, symName: __ZNSt3__122__compressed_pair_elemINS_22__allocator_destructorINS_9allocatorI10CoordinateEEEELi1ELb0EEC2B8ue170006IS5_vEEOT_, symObjAddr: 0x42BDC, symBinAddr: 0x100046878, symSize: 0x84 }
  - { offsetInCU: 0x16604, offset: 0x16604, size: 0x8, addend: 0x0, symName: __ZNKSt3__117__compressed_pairIP10CoordinateNS_22__allocator_destructorINS_9allocatorIS1_EEEEE5firstB8ue170006Ev, symObjAddr: 0x42C60, symBinAddr: 0x1000468FC, symSize: 0x124 }
  - { offsetInCU: 0x1662A, offset: 0x1662A, size: 0x8, addend: 0x0, symName: __ZNKSt3__122__compressed_pair_elemIP10CoordinateLi0ELb0EE5__getB8ue170006Ev, symObjAddr: 0x42D84, symBinAddr: 0x100046A20, symSize: 0xAC }
  - { offsetInCU: 0x16650, offset: 0x16650, size: 0x8, addend: 0x0, symName: __ZNSt3__117__compressed_pairIP10CoordinateNS_22__allocator_destructorINS_9allocatorIS1_EEEEE5firstB8ue170006Ev, symObjAddr: 0x42E30, symBinAddr: 0x100046ACC, symSize: 0x124 }
  - { offsetInCU: 0x16676, offset: 0x16676, size: 0x8, addend: 0x0, symName: __ZNSt3__122__compressed_pair_elemIP10CoordinateLi0ELb0EE5__getB8ue170006Ev, symObjAddr: 0x42F54, symBinAddr: 0x100046BF0, symSize: 0xAC }
  - { offsetInCU: 0x1669C, offset: 0x1669C, size: 0x8, addend: 0x0, symName: __ZNSt3__117__compressed_pairIPP10CoordinateNS_9allocatorIS2_EEE5firstB8ue170006Ev, symObjAddr: 0x43000, symBinAddr: 0x100046C9C, symSize: 0x124 }
  - { offsetInCU: 0x166C2, offset: 0x166C2, size: 0x8, addend: 0x0, symName: __ZNSt3__122__compressed_pair_elemIPP10CoordinateLi0ELb0EE5__getB8ue170006Ev, symObjAddr: 0x43124, symBinAddr: 0x100046DC0, symSize: 0xAC }
  - { offsetInCU: 0x166E8, offset: 0x166E8, size: 0x8, addend: 0x0, symName: __ZNSt3__117__compressed_pairIPP10CoordinateRNS_9allocatorIS2_EEE5firstB8ue170006Ev, symObjAddr: 0x431D0, symBinAddr: 0x100046E6C, symSize: 0x124 }
  - { offsetInCU: 0x1670E, offset: 0x1670E, size: 0x8, addend: 0x0, symName: __ZNSt3__110unique_ptrIP10CoordinateNS_22__allocator_destructorINS_9allocatorIS1_EEEEED2B8ue170006Ev, symObjAddr: 0x432F4, symBinAddr: 0x100046F90, symSize: 0x7C }
  - { offsetInCU: 0x16738, offset: 0x16738, size: 0x8, addend: 0x0, symName: __ZNSt3__110unique_ptrIP10CoordinateNS_22__allocator_destructorINS_9allocatorIS1_EEEEE5resetB8ue170006ES2_, symObjAddr: 0x43370, symBinAddr: 0x10004700C, symSize: 0x2CC }
  - { offsetInCU: 0x1677C, offset: 0x1677C, size: 0x8, addend: 0x0, symName: __ZNSt3__117__compressed_pairIP10CoordinateNS_22__allocator_destructorINS_9allocatorIS1_EEEEE6secondB8ue170006Ev, symObjAddr: 0x4363C, symBinAddr: 0x1000472D8, symSize: 0x12C }
  - { offsetInCU: 0x167A2, offset: 0x167A2, size: 0x8, addend: 0x0, symName: __ZNSt3__122__allocator_destructorINS_9allocatorI10CoordinateEEEclB8ue170006EPS2_, symObjAddr: 0x43768, symBinAddr: 0x100047404, symSize: 0x128 }
  - { offsetInCU: 0x167D6, offset: 0x167D6, size: 0x8, addend: 0x0, symName: __ZNSt3__122__compressed_pair_elemINS_22__allocator_destructorINS_9allocatorI10CoordinateEEEELi1ELb0EE5__getB8ue170006Ev, symObjAddr: 0x43890, symBinAddr: 0x10004752C, symSize: 0xAC }
  - { offsetInCU: 0x167FC, offset: 0x167FC, size: 0x8, addend: 0x0, symName: __ZNSt3__114__split_bufferIP10CoordinateRNS_9allocatorIS2_EEED2Ev, symObjAddr: 0x4393C, symBinAddr: 0x1000475D8, symSize: 0x16C }
  - { offsetInCU: 0x16828, offset: 0x16828, size: 0x8, addend: 0x0, symName: __ZNSt3__114__split_bufferIP10CoordinateRNS_9allocatorIS2_EEE5clearB8ue170006Ev, symObjAddr: 0x43AA8, symBinAddr: 0x100047744, symSize: 0xB4 }
  - { offsetInCU: 0x1684E, offset: 0x1684E, size: 0x8, addend: 0x0, symName: __ZNKSt3__114__split_bufferIP10CoordinateRNS_9allocatorIS2_EEE8capacityB8ue170006Ev, symObjAddr: 0x43B5C, symBinAddr: 0x1000477F8, symSize: 0x144 }
  - { offsetInCU: 0x16874, offset: 0x16874, size: 0x8, addend: 0x0, symName: __ZNSt3__114__split_bufferIP10CoordinateRNS_9allocatorIS2_EEE17__destruct_at_endB8ue170006EPS2_, symObjAddr: 0x43CA0, symBinAddr: 0x10004793C, symSize: 0x74 }
  - { offsetInCU: 0x168A8, offset: 0x168A8, size: 0x8, addend: 0x0, symName: __ZNSt3__114__split_bufferIP10CoordinateRNS_9allocatorIS2_EEE17__destruct_at_endB8ue170006EPS2_NS_17integral_constantIbLb0EEE, symObjAddr: 0x43D14, symBinAddr: 0x1000479B0, symSize: 0x224 }
  - { offsetInCU: 0x168E8, offset: 0x168E8, size: 0x8, addend: 0x0, symName: __ZNKSt3__114__split_bufferIP10CoordinateRNS_9allocatorIS2_EEE9__end_capB8ue170006Ev, symObjAddr: 0x43F38, symBinAddr: 0x100047BD4, symSize: 0x100 }
  - { offsetInCU: 0x1690E, offset: 0x1690E, size: 0x8, addend: 0x0, symName: __ZNKSt3__117__compressed_pairIPP10CoordinateRNS_9allocatorIS2_EEE5firstB8ue170006Ev, symObjAddr: 0x44038, symBinAddr: 0x100047CD4, symSize: 0x124 }
  - { offsetInCU: 0x16934, offset: 0x16934, size: 0x8, addend: 0x0, symName: __ZNSt3__19allocatorI10CoordinateE9constructB8ue170006IS1_JRKS1_EEEvPT_DpOT0_, symObjAddr: 0x4415C, symBinAddr: 0x100047DF8, symSize: 0xA8 }
  - { offsetInCU: 0x1698A, offset: 0x1698A, size: 0x8, addend: 0x0, symName: __ZNSt3__15dequeI10CoordinateNS_9allocatorIS1_EEE20__add_front_capacityEv, symObjAddr: 0x44204, symBinAddr: 0x100047EA0, symSize: 0x14CC }
  - { offsetInCU: 0x16A4A, offset: 0x16A4A, size: 0x8, addend: 0x0, symName: __ZNKSt3__15dequeI10CoordinateNS_9allocatorIS1_EEE25__annotate_increase_frontB8ue170006Em, symObjAddr: 0x456D0, symBinAddr: 0x10004936C, symSize: 0x108 }
  - { offsetInCU: 0x16A7F, offset: 0x16A7F, size: 0x8, addend: 0x0, symName: __ZNSt3__116__deque_iteratorI10CoordinatePS1_RS1_PS2_lLl256EEmmB8ue170006Ev, symObjAddr: 0x457D8, symBinAddr: 0x100049474, symSize: 0x534 }
  - { offsetInCU: 0x16AA5, offset: 0x16AA5, size: 0x8, addend: 0x0, symName: __ZNSt3__114__split_bufferIP10CoordinateNS_9allocatorIS2_EEE4backB8ue170006Ev, symObjAddr: 0x45D0C, symBinAddr: 0x1000499A8, symSize: 0x18C }
  - { offsetInCU: 0x16ACB, offset: 0x16ACB, size: 0x8, addend: 0x0, symName: __ZNSt3__114__split_bufferIP10CoordinateNS_9allocatorIS2_EEE8pop_backB8ue170006Ev, symObjAddr: 0x45E98, symBinAddr: 0x100049B34, symSize: 0x150 }
  - { offsetInCU: 0x16AF1, offset: 0x16AF1, size: 0x8, addend: 0x0, symName: __ZNSt3__114__split_bufferIP10CoordinateNS_9allocatorIS2_EEE10push_frontERKS2_, symObjAddr: 0x45FE8, symBinAddr: 0x100049C84, symSize: 0x1214 }
  - { offsetInCU: 0x16B70, offset: 0x16B70, size: 0x8, addend: 0x0, symName: __ZNKSt3__114__split_bufferIP10CoordinateNS_9allocatorIS2_EEE13__front_spareB8ue170006Ev, symObjAddr: 0x471FC, symBinAddr: 0x10004AE98, symSize: 0xF8 }
  - { offsetInCU: 0x16B96, offset: 0x16B96, size: 0x8, addend: 0x0, symName: __ZNSt3__114__split_bufferIP10CoordinateRNS_9allocatorIS2_EEE9push_backB8ue170006ERKS2_, symObjAddr: 0x472F4, symBinAddr: 0x10004AF90, symSize: 0x1138 }
  - { offsetInCU: 0x16C15, offset: 0x16C15, size: 0x8, addend: 0x0, symName: __ZNSt3__111char_traitsIcE6lengthB8ue170006EPKc, symObjAddr: 0x49468, symBinAddr: 0x10004D104, symSize: 0x40 }
  - { offsetInCU: 0x16C56, offset: 0x16C56, size: 0x8, addend: 0x0, symName: __ZNKSt3__113basic_ostreamIcNS_11char_traitsIcEEE6sentrycvbB8ue170006Ev, symObjAddr: 0x494A8, symBinAddr: 0x10004D144, symSize: 0x104 }
  - { offsetInCU: 0x16C7C, offset: 0x16C7C, size: 0x8, addend: 0x0, symName: __ZNSt3__119ostreambuf_iteratorIcNS_11char_traitsIcEEEC1B8ue170006ERNS_13basic_ostreamIcS2_EE, symObjAddr: 0x4A134, symBinAddr: 0x10004DDD0, symSize: 0x80 }
  - { offsetInCU: 0x16CB4, offset: 0x16CB4, size: 0x8, addend: 0x0, symName: __ZNKSt3__18ios_base5flagsB8ue170006Ev, symObjAddr: 0x4A1B4, symBinAddr: 0x10004DE50, symSize: 0x160 }
  - { offsetInCU: 0x16CDC, offset: 0x16CDC, size: 0x8, addend: 0x0, symName: __ZNKSt3__19basic_iosIcNS_11char_traitsIcEEE4fillB8ue170006Ev, symObjAddr: 0x4A314, symBinAddr: 0x10004DFB0, symSize: 0x39C }
  - { offsetInCU: 0x16D04, offset: 0x16D04, size: 0x8, addend: 0x0, symName: __ZNKSt3__119ostreambuf_iteratorIcNS_11char_traitsIcEEE6failedB8ue170006Ev, symObjAddr: 0x4A6B0, symBinAddr: 0x10004E34C, symSize: 0xB8 }
  - { offsetInCU: 0x16D2A, offset: 0x16D2A, size: 0x8, addend: 0x0, symName: __ZNSt3__115basic_streambufIcNS_11char_traitsIcEEE5sputnB8ue170006EPKcl, symObjAddr: 0x4A768, symBinAddr: 0x10004E404, symSize: 0x198 }
  - { offsetInCU: 0x16D6C, offset: 0x16D6C, size: 0x8, addend: 0x0, symName: __ZNSt3__112basic_stringIcNS_11char_traitsIcEENS_9allocatorIcEEEC1B8ue170006Emc, symObjAddr: 0x4A900, symBinAddr: 0x10004E59C, symSize: 0x88 }
  - { offsetInCU: 0x16DB4, offset: 0x16DB4, size: 0x8, addend: 0x0, symName: __ZNSt3__112basic_stringIcNS_11char_traitsIcEENS_9allocatorIcEEE4dataB8ue170006Ev, symObjAddr: 0x4A988, symBinAddr: 0x10004E624, symSize: 0x70 }
  - { offsetInCU: 0x16DDA, offset: 0x16DDA, size: 0x8, addend: 0x0, symName: __ZNSt3__112basic_stringIcNS_11char_traitsIcEENS_9allocatorIcEEEC2B8ue170006Emc, symObjAddr: 0x4A9F8, symBinAddr: 0x10004E694, symSize: 0x26C }
  - { offsetInCU: 0x16E25, offset: 0x16E25, size: 0x8, addend: 0x0, symName: __ZNSt3__119ostreambuf_iteratorIcNS_11char_traitsIcEEEC2B8ue170006ERNS_13basic_ostreamIcS2_EE, symObjAddr: 0x4AC78, symBinAddr: 0x10004E914, symSize: 0x2E8 }
  - { offsetInCU: 0x16E5D, offset: 0x16E5D, size: 0x8, addend: 0x0, symName: __ZNKSt3__15dequeI10CoordinateNS_9allocatorIS1_EEE22__annotate_shrink_backB8ue170006Emm, symObjAddr: 0x4AF84, symBinAddr: 0x10004EC20, symSize: 0xA4 }
  - { offsetInCU: 0x16EA1, offset: 0x16EA1, size: 0x8, addend: 0x0, symName: __ZNSt3__15dequeI10CoordinateNS_9allocatorIS1_EEE25__maybe_remove_back_spareB8ue170006Eb, symObjAddr: 0x4B028, symBinAddr: 0x10004ECC4, symSize: 0x2CC }
  - { offsetInCU: 0x16ED6, offset: 0x16ED6, size: 0x8, addend: 0x0, symName: __ZNKSt3__15dequeI10CoordinateNS_9allocatorIS1_EEE19__back_spare_blocksB8ue170006Ev, symObjAddr: 0x4B2F4, symBinAddr: 0x10004EF90, symSize: 0xA0 }
  - { offsetInCU: 0x16EFC, offset: 0x16EFC, size: 0x8, addend: 0x0, symName: __ZNSt3__112basic_stringIcNS_11char_traitsIcEENS_9allocatorIcEEE15__make_iteratorB8ue170006EPc, symObjAddr: 0x4B394, symBinAddr: 0x10004F030, symSize: 0x244 }
  - { offsetInCU: 0x16F33, offset: 0x16F33, size: 0x8, addend: 0x0, symName: __ZNSt3__111__wrap_iterIPcEC1B8ue170006ES1_, symObjAddr: 0x4B5D8, symBinAddr: 0x10004F274, symSize: 0x80 }
  - { offsetInCU: 0x16F6B, offset: 0x16F6B, size: 0x8, addend: 0x0, symName: __ZNSt3__111__wrap_iterIPcEC2B8ue170006ES1_, symObjAddr: 0x4B658, symBinAddr: 0x10004F2F4, symSize: 0xC8 }
  - { offsetInCU: 0x3B, offset: 0x1719F, size: 0x8, addend: 0x0, symName: _.str, symObjAddr: 0xF900, symBinAddr: 0x10005F800, symSize: 0x0 }
  - { offsetInCU: 0x6B, offset: 0x171CF, size: 0x8, addend: 0x0, symName: _.str.1, symObjAddr: 0xF920, symBinAddr: 0x10005F820, symSize: 0x0 }
  - { offsetInCU: 0x88, offset: 0x171EC, size: 0x8, addend: 0x0, symName: _.str.2, symObjAddr: 0xF960, symBinAddr: 0x10005F860, symSize: 0x0 }
  - { offsetInCU: 0xA5, offset: 0x17209, size: 0x8, addend: 0x0, symName: _.str.3, symObjAddr: 0xF980, symBinAddr: 0x10005F880, symSize: 0x0 }
  - { offsetInCU: 0xB6, offset: 0x1721A, size: 0x8, addend: 0x0, symName: _.str.4, symObjAddr: 0xF9A0, symBinAddr: 0x10005F8A0, symSize: 0x0 }
  - { offsetInCU: 0xD3, offset: 0x17237, size: 0x8, addend: 0x0, symName: _.str.5, symObjAddr: 0xF9C0, symBinAddr: 0x10005F8C0, symSize: 0x0 }
  - { offsetInCU: 0xE4, offset: 0x17248, size: 0x8, addend: 0x0, symName: _.str.6, symObjAddr: 0xF9E0, symBinAddr: 0x10005F8E0, symSize: 0x0 }
  - { offsetInCU: 0xF5, offset: 0x17259, size: 0x8, addend: 0x0, symName: _.str.7, symObjAddr: 0xFA00, symBinAddr: 0x10005F900, symSize: 0x0 }
  - { offsetInCU: 0x112, offset: 0x17276, size: 0x8, addend: 0x0, symName: _.str.8, symObjAddr: 0xFA20, symBinAddr: 0x10005F920, symSize: 0x0 }
  - { offsetInCU: 0x12F, offset: 0x17293, size: 0x8, addend: 0x0, symName: _.str.9, symObjAddr: 0xFA40, symBinAddr: 0x10005F940, symSize: 0x0 }
  - { offsetInCU: 0x14C, offset: 0x172B0, size: 0x8, addend: 0x0, symName: _.str.10, symObjAddr: 0xFA60, symBinAddr: 0x10005F960, symSize: 0x0 }
  - { offsetInCU: 0x15D, offset: 0x172C1, size: 0x8, addend: 0x0, symName: _.str.11, symObjAddr: 0xFA80, symBinAddr: 0x10005F980, symSize: 0x0 }
  - { offsetInCU: 0x16E, offset: 0x172D2, size: 0x8, addend: 0x0, symName: _.str.12, symObjAddr: 0xFAA0, symBinAddr: 0x10005F9A0, symSize: 0x0 }
  - { offsetInCU: 0x18B, offset: 0x172EF, size: 0x8, addend: 0x0, symName: _.str.13, symObjAddr: 0xFAE0, symBinAddr: 0x10005F9E0, symSize: 0x0 }
  - { offsetInCU: 0x1A8, offset: 0x1730C, size: 0x8, addend: 0x0, symName: _.str.14, symObjAddr: 0xFB40, symBinAddr: 0x10005FA40, symSize: 0x0 }
  - { offsetInCU: 0x1B9, offset: 0x1731D, size: 0x8, addend: 0x0, symName: _.str.15, symObjAddr: 0xFBA0, symBinAddr: 0x10005FAA0, symSize: 0x0 }
  - { offsetInCU: 0x1CA, offset: 0x1732E, size: 0x8, addend: 0x0, symName: _.str.16, symObjAddr: 0xFBC0, symBinAddr: 0x10005FAC0, symSize: 0x0 }
  - { offsetInCU: 0x1DB, offset: 0x1733F, size: 0x8, addend: 0x0, symName: _.str.17, symObjAddr: 0xFC00, symBinAddr: 0x10005FB00, symSize: 0x0 }
  - { offsetInCU: 0x1F8, offset: 0x1735C, size: 0x8, addend: 0x0, symName: _.str.18, symObjAddr: 0xFC20, symBinAddr: 0x10005FB20, symSize: 0x0 }
  - { offsetInCU: 0x209, offset: 0x1736D, size: 0x8, addend: 0x0, symName: _.str.19, symObjAddr: 0xFC40, symBinAddr: 0x10005FB40, symSize: 0x0 }
  - { offsetInCU: 0x226, offset: 0x1738A, size: 0x8, addend: 0x0, symName: _.str.20, symObjAddr: 0xFC80, symBinAddr: 0x10005FB80, symSize: 0x0 }
  - { offsetInCU: 0x587C, offset: 0x1C9E0, size: 0x8, addend: 0x0, symName: __ZNSt3__14endlB8ue170006IcNS_11char_traitsIcEEEERNS_13basic_ostreamIT_T0_EES7_, symObjAddr: 0x3A4, symBinAddr: 0x10004F728, symSize: 0x3D8 }
  - { offsetInCU: 0x58BC, offset: 0x1CA20, size: 0x8, addend: 0x0, symName: __ZNSt3__1neB8ue170006IcNS_11char_traitsIcEENS_9allocatorIcEEEEbRKNS_12basic_stringIT_T0_T1_EEPKS6_, symObjAddr: 0x2CFC, symBinAddr: 0x100052080, symSize: 0x7C }
  - { offsetInCU: 0x5914, offset: 0x1CA78, size: 0x8, addend: 0x0, symName: __ZNSt3__16uniqueB8ue170006INS_11__wrap_iterIPcEEEET_S4_S4_, symObjAddr: 0x37B4, symBinAddr: 0x1000521E8, symSize: 0x3E4 }
  - { offsetInCU: 0x595F, offset: 0x1CAC3, size: 0x8, addend: 0x0, symName: __ZNSt3__1eqB8ue170006IcNS_11char_traitsIcEENS_9allocatorIcEEEEbRKNS_12basic_stringIT_T0_T1_EEPKS6_, symObjAddr: 0x3B98, symBinAddr: 0x1000525CC, symSize: 0x120 }
  - { offsetInCU: 0x59C6, offset: 0x1CB2A, size: 0x8, addend: 0x0, symName: __ZNSt3__16uniqueB8ue170006INS_11__wrap_iterIPcEENS_10__equal_toEEET_S5_S5_T0_, symObjAddr: 0xE0D4, symBinAddr: 0x100054DF4, symSize: 0x450 }
  - { offsetInCU: 0x5A2D, offset: 0x1CB91, size: 0x8, addend: 0x0, symName: __ZNSt3__18__uniqueB8ue170006INS_17_ClassicAlgPolicyENS_11__wrap_iterIPcEES4_RNS_10__equal_toEEENS_4pairIT0_S8_EES8_T1_OT2_, symObjAddr: 0xE524, symBinAddr: 0x100055244, symSize: 0x77C }
  - { offsetInCU: 0x5AC3, offset: 0x1CC27, size: 0x8, addend: 0x0, symName: __ZNSt3__115__adjacent_findB8ue170006INS_11__wrap_iterIPcEES3_RNS_10__equal_toEEET_S6_T0_OT1_, symObjAddr: 0xECA0, symBinAddr: 0x1000559C0, symSize: 0x49C }
  - { offsetInCU: 0x7F96, offset: 0x1F0FA, size: 0x8, addend: 0x0, symName: __Z9printHelpPc, symObjAddr: 0x0, symBinAddr: 0x10004F454, symSize: 0x1CC }
  - { offsetInCU: 0x7FBF, offset: 0x1F123, size: 0x8, addend: 0x0, symName: __ZNSt3__113basic_ostreamIcNS_11char_traitsIcEEElsB8ue170006EPFRS3_S4_E, symObjAddr: 0x29C, symBinAddr: 0x10004F620, symSize: 0x108 }
  - { offsetInCU: 0x7FF3, offset: 0x1F157, size: 0x8, addend: 0x0, symName: __Z10getOptionsiPPcR7Options, symObjAddr: 0x77C, symBinAddr: 0x10004FB00, symSize: 0x2530 }
  - { offsetInCU: 0x80F5, offset: 0x1F259, size: 0x8, addend: 0x0, symName: __ZNSt3__112basic_stringIcNS_11char_traitsIcEENS_9allocatorIcEEEC1B8ue170006ILi0EEEPKc, symObjAddr: 0x2D78, symBinAddr: 0x1000520FC, symSize: 0x80 }
  - { offsetInCU: 0x8133, offset: 0x1F297, size: 0x8, addend: 0x0, symName: __ZNKSt3__112basic_stringIcNS_11char_traitsIcEENS_9allocatorIcEEE6lengthB8ue170006Ev, symObjAddr: 0x2DF8, symBinAddr: 0x10005217C, symSize: 0x6C }
  - { offsetInCU: 0x815A, offset: 0x1F2BE, size: 0x8, addend: 0x0, symName: _main, symObjAddr: 0x3CB8, symBinAddr: 0x1000526EC, symSize: 0x808 }
  - { offsetInCU: 0x8232, offset: 0x1F396, size: 0x8, addend: 0x0, symName: __ZN7OptionsC1Ev, symObjAddr: 0x44C0, symBinAddr: 0x100052EF4, symSize: 0x78 }
  - { offsetInCU: 0x845E, offset: 0x1F5C2, size: 0x8, addend: 0x0, symName: __ZN13Treasure_HuntC1ENSt3__112basic_stringIcNS0_11char_traitsIcEENS0_9allocatorIcEEEEbbbccc, symObjAddr: 0x4538, symBinAddr: 0x100052F6C, symSize: 0x160 }
  - { offsetInCU: 0x84EB, offset: 0x1F64F, size: 0x8, addend: 0x0, symName: __ZN13Treasure_HuntD1Ev, symObjAddr: 0x4698, symBinAddr: 0x1000530CC, symSize: 0x78 }
  - { offsetInCU: 0x8517, offset: 0x1F67B, size: 0x8, addend: 0x0, symName: __ZN7OptionsD1Ev, symObjAddr: 0x4710, symBinAddr: 0x100053144, symSize: 0x78 }
  - { offsetInCU: 0x8543, offset: 0x1F6A7, size: 0x8, addend: 0x0, symName: __ZN7OptionsC2Ev, symObjAddr: 0x48D0, symBinAddr: 0x1000531BC, symSize: 0x268 }
  - { offsetInCU: 0x856F, offset: 0x1F6D3, size: 0x8, addend: 0x0, symName: __ZN13Treasure_HuntC2ENSt3__112basic_stringIcNS0_11char_traitsIcEENS0_9allocatorIcEEEEbbbccc, symObjAddr: 0x4B38, symBinAddr: 0x100053424, symSize: 0x5F8 }
  - { offsetInCU: 0x85FC, offset: 0x1F760, size: 0x8, addend: 0x0, symName: __ZNSt3__16vectorINS0_I5PointNS_9allocatorIS1_EEEENS2_IS4_EEEC1B8ue170006Ev, symObjAddr: 0x5130, symBinAddr: 0x100053A1C, symSize: 0x78 }
  - { offsetInCU: 0x8626, offset: 0x1F78A, size: 0x8, addend: 0x0, symName: __ZNSt3__16vectorINS0_I5PointNS_9allocatorIS1_EEEENS2_IS4_EEED1B8ue170006Ev, symObjAddr: 0x51A8, symBinAddr: 0x100053A94, symSize: 0x78 }
  - { offsetInCU: 0x8650, offset: 0x1F7B4, size: 0x8, addend: 0x0, symName: __ZNSt3__16vectorINS0_I5PointNS_9allocatorIS1_EEEENS2_IS4_EEEC2B8ue170006Ev, symObjAddr: 0x5220, symBinAddr: 0x100053B0C, symSize: 0x340 }
  - { offsetInCU: 0x8685, offset: 0x1F7E9, size: 0x8, addend: 0x0, symName: __ZNSt3__117__compressed_pairIPNS_6vectorI5PointNS_9allocatorIS2_EEEENS3_IS5_EEEC1B8ue170006IDnNS_18__default_init_tagEEEOT_OT0_, symObjAddr: 0x5560, symBinAddr: 0x100053E4C, symSize: 0x88 }
  - { offsetInCU: 0x86DD, offset: 0x1F841, size: 0x8, addend: 0x0, symName: __ZNSt3__117__compressed_pairIPNS_6vectorI5PointNS_9allocatorIS2_EEEENS3_IS5_EEEC2B8ue170006IDnNS_18__default_init_tagEEEOT_OT0_, symObjAddr: 0x55F4, symBinAddr: 0x100053ED4, symSize: 0x140 }
  - { offsetInCU: 0x8735, offset: 0x1F899, size: 0x8, addend: 0x0, symName: __ZNSt3__122__compressed_pair_elemINS_9allocatorINS_6vectorI5PointNS1_IS3_EEEEEELi1ELb1EEC2B8ue170006ENS_18__default_init_tagE, symObjAddr: 0x57F0, symBinAddr: 0x100054014, symSize: 0x84 }
  - { offsetInCU: 0x8769, offset: 0x1F8CD, size: 0x8, addend: 0x0, symName: __ZNSt3__19allocatorINS_6vectorI5PointNS0_IS2_EEEEEC2B8ue170006Ev, symObjAddr: 0x5874, symBinAddr: 0x100054098, symSize: 0x84 }
  - { offsetInCU: 0x8793, offset: 0x1F8F7, size: 0x8, addend: 0x0, symName: __ZNSt3__116__non_trivial_ifILb1ENS_9allocatorINS_6vectorI5PointNS1_IS3_EEEEEEEC2B8ue170006Ev, symObjAddr: 0x58F8, symBinAddr: 0x10005411C, symSize: 0x54 }
  - { offsetInCU: 0x87BD, offset: 0x1F921, size: 0x8, addend: 0x0, symName: __ZNSt3__16vectorINS0_I5PointNS_9allocatorIS1_EEEENS2_IS4_EEED2B8ue170006Ev, symObjAddr: 0x594C, symBinAddr: 0x100054170, symSize: 0x298 }
  - { offsetInCU: 0x87E8, offset: 0x1F94C, size: 0x8, addend: 0x0, symName: __ZNSt3__16vectorINS0_I5PointNS_9allocatorIS1_EEEENS2_IS4_EEE16__destroy_vectorC1B8ue170006ERS6_, symObjAddr: 0x5BE4, symBinAddr: 0x100054408, symSize: 0x80 }
  - { offsetInCU: 0x8820, offset: 0x1F984, size: 0x8, addend: 0x0, symName: __ZNSt3__16vectorINS0_I5PointNS_9allocatorIS1_EEEENS2_IS4_EEE16__destroy_vectorclB8ue170006Ev, symObjAddr: 0x5C64, symBinAddr: 0x100054488, symSize: 0x43C }
  - { offsetInCU: 0x8847, offset: 0x1F9AB, size: 0x8, addend: 0x0, symName: __ZNSt3__16vectorINS0_I5PointNS_9allocatorIS1_EEEENS2_IS4_EEE16__destroy_vectorC2B8ue170006ERS6_, symObjAddr: 0x60A0, symBinAddr: 0x1000548C4, symSize: 0x108 }
  - { offsetInCU: 0x887F, offset: 0x1F9E3, size: 0x8, addend: 0x0, symName: __ZNSt3__16vectorINS0_I5PointNS_9allocatorIS1_EEEENS2_IS4_EEE7__clearB8ue170006Ev, symObjAddr: 0x61A8, symBinAddr: 0x1000549CC, symSize: 0xB0 }
  - { offsetInCU: 0x88A6, offset: 0x1FA0A, size: 0x8, addend: 0x0, symName: __ZN13Treasure_HuntD2Ev, symObjAddr: 0x8C28, symBinAddr: 0x100054A7C, symSize: 0x84 }
  - { offsetInCU: 0x88D2, offset: 0x1FA36, size: 0x8, addend: 0x0, symName: __ZN7OptionsD2Ev, symObjAddr: 0x8CAC, symBinAddr: 0x100054B00, symSize: 0x7C }
  - { offsetInCU: 0x88FE, offset: 0x1FA62, size: 0x8, addend: 0x0, symName: __ZNSt3__112basic_stringIcNS_11char_traitsIcEENS_9allocatorIcEEEC2B8ue170006ILi0EEEPKc, symObjAddr: 0x8D28, symBinAddr: 0x100054B7C, symSize: 0x278 }
  - { offsetInCU: 0x8966, offset: 0x1FACA, size: 0x8, addend: 0x0, symName: __ZNKSt3__110__equal_toclB8ue170006IccEEbRKT_RKT0_, symObjAddr: 0xF13C, symBinAddr: 0x100055E5C, symSize: 0x134 }
  - { offsetInCU: 0x89C0, offset: 0x1FB24, size: 0x8, addend: 0x0, symName: __ZNSt3__18_IterOpsINS_17_ClassicAlgPolicyEE11__iter_moveB8ue170006IRNS_11__wrap_iterIPcEEEENS_9enable_ifIXsr12is_referenceIDTdeclsr3stdE7declvalIRT_EEEEE5valueEDTclsr3stdE4movedeclsr3stdE7declvalISA_EEEEE4typeEOS9_, symObjAddr: 0xF270, symBinAddr: 0x100055F90, symSize: 0x9C }
  - { offsetInCU: 0x8A0A, offset: 0x1FB6E, size: 0x8, addend: 0x0, symName: __ZNSt3__14pairINS_11__wrap_iterIPcEES3_EC1B8ue170006IS3_S3_LPv0EEEOT_OT0_, symObjAddr: 0xF30C, symBinAddr: 0x10005602C, symSize: 0x88 }
  - { offsetInCU: 0x8A68, offset: 0x1FBCC, size: 0x8, addend: 0x0, symName: __ZNSt3__14pairINS_11__wrap_iterIPcEES3_EC1B8ue170006IRS3_S6_LPv0EEEOT_OT0_, symObjAddr: 0xF394, symBinAddr: 0x1000560B4, symSize: 0x88 }
  - { offsetInCU: 0x8AC6, offset: 0x1FC2A, size: 0x8, addend: 0x0, symName: __ZNSt3__18_IterOpsINS_17_ClassicAlgPolicyEE25__validate_iter_referenceB8ue170006IRNS_11__wrap_iterIPcEEEEvv, symObjAddr: 0xF41C, symBinAddr: 0x10005613C, symSize: 0x4 }
  - { offsetInCU: 0x8AE4, offset: 0x1FC48, size: 0x8, addend: 0x0, symName: __ZNSt3__14pairINS_11__wrap_iterIPcEES3_EC2B8ue170006IS3_S3_LPv0EEEOT_OT0_, symObjAddr: 0xF420, symBinAddr: 0x100056140, symSize: 0xA0 }
  - { offsetInCU: 0x8B42, offset: 0x1FCA6, size: 0x8, addend: 0x0, symName: __ZNSt3__14pairINS_11__wrap_iterIPcEES3_EC2B8ue170006IRS3_S6_LPv0EEEOT_OT0_, symObjAddr: 0xF4C0, symBinAddr: 0x1000561E0, symSize: 0xA0 }
...
